A51 MACRO ASSEMBLER  __________V0_0                                                       12/04/2016 21:52:57 PAGE     1


MACRO ASSEMBLER A51 V8.2.5.0
OBJECT MODULE PLACED IN .\Objects\¼òÒ×Ê¾²¨Æ÷V0.0.obj
ASSEMBLER INVOKED BY: C:\MySoftWare\keil_v5\C51\BIN\A51.EXE ¼òÒ×Ê¾²¨Æ÷V0.0.asm SET(SMALL) DEBUG PRINT(.\Listings\¼òÒ×Ê¾²
                      ¨Æ÷V0.0.lst) OBJECT(.\Objects\¼òÒ×Ê¾²¨Æ÷V0.0.obj) EP

LOC  OBJ            LINE     SOURCE

                       1     ;æ ‡å·==============æŒ‡ä»¤================================åœ°å€===æœºå™¨ç =======

                       2     ;==========================================================================

0000 023281            3     Q0000:             LJMP  Q3281                        ;0000   02 32 81

                       4     ;==========================================================================

0003 00000000          5     Q0003:           DB  00H, 00H, 00H, 00H, 00H, 00H, 00H, 00H     ;........

0007 00000000                
000B 022C38            6     Q000B:           DB  02H, 2CH, 38H      ;.,8

                       7     ;==========================================================================

000E E4                8     Q000E:             CLR   A                            ;000E   E4

000F F5C7              9                        MOV   0C7H,A                       ;000F   F5 C7

0011 F5C5             10                        MOV   0C5H,A                       ;0011   F5 C5

0013 F5C6             11                        MOV   0C6H,A                       ;0013   F5 C6

0015 75C380           12                        MOV   0C3H,#80H                    ;0015   75 C3 80

0018 F5C4             13                        MOV   0C4H,A                       ;0018   F5 C4

001A 22               14                        RET                                ;001A   22

                      15     ;==========================================================================

001B 023262           16     Q001B:           DB  02H, 32H, 62H      ;.2b

                      17     ;==========================================================================

001E 75C780           18     Q001E:             MOV   0C7H,#80H                    ;001E   75 C7 80

0021 75C501           19                        MOV   0C5H,#01H                    ;0021   75 C5 01

0024 8FC4             20                        MOV   0C4H,R7                      ;0024   8F C4

0026 8EC3             21                        MOV   0C3H,R6                      ;0026   8E C3

0028 75C65A           22                        MOV   0C6H,#5AH                    ;0028   75 C6 5A

002B 75C6A5           23                        MOV   0C6H,#0A5H                   ;002B   75 C6 A5

002E 00               24                        NOP                                ;002E   00

002F AFC2             25                        MOV   R7,0C2H                      ;002F   AF C2

0031 12000E           26                        LCALL Q000E                        ;0031   12 00 0E

0034 22               27                        RET                                ;0034   22

                      28     ;==========================================================================

0035 00000000         29     Q0035:           DB  00H, 00H, 00H, 00H, 00H, 00H, 02H, 2EH     ;........

0039 0000022E                
003D C6202020         30     Q003D:           DB 0C6H, 20H, 20H, 20H, 20H, 20H, 20H, 20H     ;........

0041 20202020                
0045 20202000         31     Q0045:           DB  20H, 20H, 20H, 00H, 48H, 6FH, 6CH, 64H     ;....Hold

0049 486F6C64                
004D 204D6F64         32     Q004D:           DB  20H, 4DH, 6FH, 64H, 65H, 20H, 00H, 20H     ;.Mode...

0051 65200020                
0055 31306D73         33     Q0055:           DB  31H, 30H, 6DH, 73H, 2FH, 64H, 00H, 20H     ;10ms/d..

0059 2F640020                
005D 20356D73         34     Q005D:           DB  20H, 35H, 6DH, 73H, 2FH, 64H, 00H, 20H     ;.5ms/d..

0061 2F640020                
0065 20326D73         35     Q0065:           DB  20H, 32H, 6DH, 73H, 2FH, 64H, 00H, 20H     ;.2ms/d..

0069 2F640020                
006D 20316D73         36     Q006D:           DB  20H, 31H, 6DH, 73H, 2FH, 64H, 00H, 35H     ;.1ms/d.5

0071 2F640035                
0075 30307573         37     Q0075:           DB  30H, 30H, 75H, 73H, 2FH, 64H, 00H, 32H     ;00us/d.2

0079 2F640032                
007D 30307573         38     Q007D:           DB  30H, 30H, 75H, 73H, 2FH, 64H, 00H, 31H     ;00us/d.1

0081 2F640031                
0085 30307573         39     Q0085:           DB  30H, 30H, 75H, 73H, 2FH, 64H, 00H, 20H     ;00us/d..

0089 2F640020                
008D 35307573         40     Q008D:           DB  35H, 30H, 75H, 73H, 2FH, 64H, 00H, 20H     ;50us/d..

0091 2F640020                
0095 32307573         41     Q0095:           DB  32H, 30H, 75H, 73H, 2FH, 64H, 00H, 20H     ;20us/d..

0099 2F640020                
009D 31307573         42     Q009D:           DB  31H, 30H, 75H, 73H, 2FH, 64H, 00H, 20H     ;10us/d..

00A1 2F640020                
A51 MACRO ASSEMBLER  __________V0_0                                                       12/04/2016 21:52:57 PAGE     2

00A5 20357573         43     Q00A5:           DB  20H, 35H, 75H, 73H, 2FH, 64H, 00H, 20H     ;.5us/d..

00A9 2F640020                
00AD 20327573         44     Q00AD:           DB  20H, 32H, 75H, 73H, 2FH, 64H, 00H, 20H     ;.2us/d..

00B1 2F640020                
00B5 20317573         45     Q00B5:           DB  20H, 31H, 75H, 73H, 2FH, 64H, 00H, 35H     ;.1us/d.5

00B9 2F640035                
00BD 30306E73         46     Q00BD:           DB  30H, 30H, 6EH, 73H, 2FH, 64H, 00H, 20H     ;00ns/d..

00C1 2F640020                
00C5 2031562F         47     Q00C5:           DB  20H, 31H, 56H, 2FH, 64H, 00H, 30H, 2EH     ;.1V/d.0.

00C9 6400302E                
00CD 35562F64         48     Q00CD:           DB  35H, 56H, 2FH, 64H, 00H, 30H, 2EH, 32H     ;5V/d.0.2

00D1 00302E32                
00D5 562F6400         49     Q00D5:           DB  56H, 2FH, 64H, 00H, 00H, 00H, 00H, 00H     ;V/d.....

00D9 00000000                
00DD 0000005F         50     Q00DD:           DB  00H, 00H, 00H, 5FH, 00H, 00H, 00H, 07H     ;..._....

00E1 00000007                
00E5 00070014         51     Q00E5:           DB  00H, 07H, 00H, 14H, 7FH, 14H, 7FH, 14H     ;......

00E9 7F147F14                
00ED 242E7B2A         52     Q00ED:           DB  24H, 2EH, 7BH, 2AH, 12H, 23H, 13H, 08H     ;$.{*.#..

00F1 12231308                
00F5 64623649         53     Q00F5:           DB  64H, 62H, 36H, 49H, 56H, 20H, 50H, 00H     ;db6IV.P.

00F9 56205000                
00FD 04030100         54     Q00FD:           DB  04H, 03H, 01H, 00H, 00H, 1CH, 22H, 41H     ;......"A

0101 001C2241                
0105 00004122         55     Q0105:           DB  00H, 00H, 41H, 22H, 1CH, 00H, 22H, 14H     ;..A"..".

0109 1C002214                
010D 7F142208         56     Q010D:           DB  7FH, 14H, 22H, 08H, 08H, 7FH, 08H, 08H     ;."....

0111 087F0808                
0115 40301000         57     Q0115:           DB  40H, 30H, 10H, 00H, 00H, 08H, 08H, 08H     ;@0......

0119 00080808                
011D 08080060         58     Q011D:           DB  08H, 08H, 00H, 60H, 60H, 00H, 00H, 20H     ;...``...

0121 60000020                
0125 10080402         59     Q0125:           DB  10H, 08H, 04H, 02H, 3EH, 51H, 49H, 45H     ;....>QIE

0129 3E514945                
012D 3E00427F         60     Q012D:           DB  3EH, 00H, 42H, 7FH, 40H, 00H, 62H, 51H     ;>.B@.bQ

0131 40006251                
0135 49494621         61     Q0135:           DB  49H, 49H, 46H, 21H, 41H, 49H, 4DH, 33H     ;IIF!AIM3

0139 41494D33                
013D 1814127F         62     Q013D:           DB  18H, 14H, 12H, 7FH, 10H, 27H, 45H, 45H     ;....'EE

0141 10274545                
0145 45393C4A         63     Q0145:           DB  45H, 39H, 3CH, 4AH, 49H, 49H, 31H, 01H     ;E9<JII1.

0149 49493101                
014D 71090503         64     Q014D:           DB  71H, 09H, 05H, 03H, 36H, 49H, 49H, 49H     ;q...6III

0151 36494949                
0155 36464949         65     Q0155:           DB  36H, 46H, 49H, 49H, 29H, 1EH, 00H, 36H     ;6FII)..6

0159 291E0036                
015D 36000040         66     Q015D:           DB  36H, 00H, 00H, 40H, 36H, 36H, 00H, 00H     ;6..@66..

0161 36360000                
0165 08142241         67     Q0165:           DB  08H, 14H, 22H, 41H, 00H, 14H, 14H, 14H     ;.."A....

0169 00141414                
016D 14140041         68     Q016D:           DB  14H, 14H, 00H, 41H, 22H, 14H, 08H, 02H     ;...A"...

0171 22140802                
0175 01590502         69     Q0175:           DB  01H, 59H, 05H, 02H, 3EH, 41H, 5DH, 55H     ;.Y..>A]U

0179 3E415D55                
017D 5E7C1211         70     Q017D:           DB  5EH, 7CH, 12H, 11H, 12H, 7CH, 7FH, 49H     ;^|...|I

0181 127C7F49                
0185 4949363E         71     Q0185:           DB  49H, 49H, 36H, 3EH, 41H, 41H, 41H, 22H     ;II6>AAA"

0189 41414122                
018D 7F414141         72     Q018D:           DB  7FH, 41H, 41H, 41H, 3EH, 7FH, 49H, 49H     ;AAA>II

0191 3E7F4949                
0195 49417F09         73     Q0195:           DB  49H, 41H, 7FH, 09H, 09H, 09H, 01H, 3EH     ;IA....>

0199 0909013E                
019D 41515172         74     Q019D:           DB  41H, 51H, 51H, 72H, 7FH, 08H, 08H, 08H     ;AQQr...

01A1 7F080808                
01A5 7F00417F         75     Q01A5:           DB  7FH, 00H, 41H, 7FH, 41H, 00H, 20H, 40H     ;.AA..@

01A9 41002040                
A51 MACRO ASSEMBLER  __________V0_0                                                       12/04/2016 21:52:57 PAGE     3

01AD 413F017F         76     Q01AD:           DB  41H, 3FH, 01H, 7FH, 08H, 14H, 22H, 41H     ;A?..."A

01B1 08142241                
01B5 7F404040         77     Q01B5:           DB  7FH, 40H, 40H, 40H, 40H, 7FH, 02H, 0CH     ;@@@@..

01B9 407F020C                
01BD 027F7F04         78     Q01BD:           DB  02H, 7FH, 7FH, 04H, 08H, 10H, 7FH, 3EH     ;....>

01C1 08107F3E                
01C5 4141413E         79     Q01C5:           DB  41H, 41H, 41H, 3EH, 7FH, 09H, 09H, 09H     ;AAA>...

01C9 7F090909                
01CD 063E4151         80     Q01CD:           DB  06H, 3EH, 41H, 51H, 21H, 5EH, 7FH, 09H     ;.>AQ!^.

01D1 215E7F09                
01D5 19294626         81     Q01D5:           DB  19H, 29H, 46H, 26H, 49H, 49H, 49H, 32H     ;.)F&III2

01D9 49494932                
01DD 01017F01         82     Q01DD:           DB  01H, 01H, 7FH, 01H, 01H, 3FH, 40H, 40H     ;....?@@

01E1 013F4040                
01E5 403F1F20         83     Q01E5:           DB  40H, 3FH, 1FH, 20H, 40H, 20H, 1FH, 7FH     ;@?..@..

01E9 40201F7F                
01ED 2018207F         84     Q01ED:           DB  20H, 18H, 20H, 7FH, 63H, 14H, 08H, 14H     ;...c...

01F1 63140814                
01F5 63030478         85     Q01F5:           DB  63H, 03H, 04H, 78H, 04H, 03H, 61H, 51H     ;c..x..aQ

01F9 04036151                
01FD 4945437F         86     Q01FD:           DB  49H, 45H, 43H, 7FH, 7FH, 41H, 41H, 00H     ;IECAA.

0201 7F414100                
0205 02040810         87     Q0205:           DB  02H, 04H, 08H, 10H, 20H, 00H, 41H, 41H     ;......AA

0209 20004141                
020D 7F7F0402         88     Q020D:           DB  7FH, 7FH, 04H, 02H, 7FH, 02H, 04H, 08H     ;.....

0211 7F020408                
0215 1C2A0808         89     Q0215:           DB  1CH, 2AH, 08H, 08H, 00H, 00H, 01H, 02H     ;.*......

0219 00000102                
021D 04245454         90     Q021D:           DB  04H, 24H, 54H, 54H, 38H, 40H, 7FH, 28H     ;.$TT8@(

0221 38407F28                
0225 44443838         91     Q0225:           DB  44H, 44H, 38H, 38H, 44H, 44H, 44H, 08H     ;DD88DDD.

0229 44444408                
022D 38444428         92     Q022D:           DB  38H, 44H, 44H, 28H, 7FH, 38H, 54H, 54H     ;8DD(8TT

0231 7F385454                
0235 5408087E         93     Q0235:           DB  54H, 08H, 08H, 7EH, 09H, 09H, 02H, 98H     ;T..~....

0239 09090298                
023D A4A4A478         94     Q023D:           DB 0A4H,0A4H,0A4H, 78H, 7FH, 08H, 04H, 04H     ;...x...

0241 7F080404                
0245 78000079         95     Q0245:           DB  78H, 00H, 00H, 79H, 00H, 00H, 00H, 80H     ;x..y....

0249 00000080                
024D 8879007F         96     Q024D:           DB  88H, 79H, 00H, 7FH, 10H, 28H, 44H, 40H     ;.y..(D@

0251 10284440                
0255 00417F40         97     Q0255:           DB  00H, 41H, 7FH, 40H, 00H, 78H, 04H, 78H     ;.A@.x.x

0259 00780478                
025D 04780478         98     Q025D:           DB  04H, 78H, 04H, 78H, 04H, 04H, 78H, 38H     ;.x.x..x8

0261 04047838                
0265 44444438         99     Q0265:           DB  44H, 44H, 44H, 38H,0FCH, 24H, 24H, 24H     ;DDD8.$$$

0269 FC242424                
026D 18182424        100     Q026D:           DB  18H, 18H, 24H, 24H, 24H,0FCH, 04H, 78H     ;..$$$..x

0271 24FC0478                
0275 04040848        101     Q0275:           DB  04H, 04H, 08H, 48H, 54H, 54H, 54H, 24H     ;...HTTT$

0279 54545424                
027D 043F4444        102     Q027D:           DB  04H, 3FH, 44H, 44H, 24H, 3CH, 40H, 40H     ;.?DD$<@@

0281 243C4040                
0285 3C401C20        103     Q0285:           DB  3CH, 40H, 1CH, 20H, 40H, 20H, 1CH, 3CH     ;<@..@..<

0289 40201C3C                
028D 403C403C        104     Q028D:           DB  40H, 3CH, 40H, 3CH, 44H, 28H, 10H, 28H     ;@<@<D(.(

0291 44281028                
0295 449CA0A0        105     Q0295:           DB  44H, 9CH,0A0H,0A0H, 90H, 7CH, 44H, 64H     ;D....|Dd

0299 907C4464                
029D 544C4408        106     Q029D:           DB  54H, 4CH, 44H, 08H, 36H, 41H, 00H, 00H     ;TLD.6A..

02A1 36410000                
02A5 00007700        107     Q02A5:           DB  00H, 00H, 77H, 00H, 00H, 00H, 00H, 41H     ;..w....A

02A9 00000041                
02AD 36080804        108     Q02AD:           DB  36H, 08H, 08H, 04H, 08H, 10H, 08H, 55H     ;6......U

02B1 08100855                
A51 MACRO ASSEMBLER  __________V0_0                                                       12/04/2016 21:52:57 PAGE     4

02B5 2A552A55        109     Q02B5:           DB  2AH, 55H, 2AH, 55H, 00H, 00H, 00H, 00H     ;*U*U....

02B9 00000000                
02BD 0000005F        110     Q02BD:           DB  00H, 00H, 00H, 5FH, 00H, 00H, 00H, 07H     ;..._....

02C1 00000007                
02C5 00070014        111     Q02C5:           DB  00H, 07H, 00H, 14H, 7FH, 14H, 7FH, 14H     ;......

02C9 7F147F14                
02CD 242A072A        112     Q02CD:           DB  24H, 2AH, 07H, 2AH, 12H, 23H, 13H, 08H     ;$*.*.#..

02D1 12231308                
02D5 64623749        113     Q02D5:           DB  64H, 62H, 37H, 49H, 55H, 22H, 50H, 00H     ;db7IU"P.

02D9 55225000                
02DD 05030000        114     Q02DD:           DB  05H, 03H, 00H, 00H, 00H, 1CH, 22H, 41H     ;......"A

02E1 001C2241                
02E5 00004122        115     Q02E5:           DB  00H, 00H, 41H, 22H, 1CH, 00H, 08H, 2AH     ;..A"...*

02E9 1C00082A                
02ED 1C2A0808        116     Q02ED:           DB  1CH, 2AH, 08H, 08H, 08H, 3EH, 08H, 08H     ;.*...>..

02F1 083E0808                
02F5 00503000        117     Q02F5:           DB  00H, 50H, 30H, 00H, 00H, 08H, 08H, 08H     ;.P0.....

02F9 00080808                
02FD 08080060        118     Q02FD:           DB  08H, 08H, 00H, 60H, 60H, 00H, 00H, 20H     ;...``...

0301 60000020                
0305 10080402        119     Q0305:           DB  10H, 08H, 04H, 02H, 3EH, 51H, 49H, 45H     ;....>QIE

0309 3E514945                
030D 3E00427F        120     Q030D:           DB  3EH, 00H, 42H, 7FH, 40H, 00H, 42H, 61H     ;>.B@.Ba

0311 40004261                
0315 51494621        121     Q0315:           DB  51H, 49H, 46H, 21H, 41H, 45H, 4BH, 31H     ;QIF!AEK1

0319 41454B31                
031D 1814127F        122     Q031D:           DB  18H, 14H, 12H, 7FH, 10H, 27H, 45H, 45H     ;....'EE

0321 10274545                
0325 45393C4A        123     Q0325:           DB  45H, 39H, 3CH, 4AH, 49H, 49H, 30H, 01H     ;E9<JII0.

0329 49493001                
032D 71090503        124     Q032D:           DB  71H, 09H, 05H, 03H, 36H, 49H, 49H, 49H     ;q...6III

0331 36494949                
0335 36064949        125     Q0335:           DB  36H, 06H, 49H, 49H, 29H, 1EH, 00H, 36H     ;6.II)..6

0339 291E0036                
033D 36000000        126     Q033D:           DB  36H, 00H, 00H, 00H, 56H, 36H, 00H, 00H     ;6...V6..

0341 56360000                
0345 00081422        127     Q0345:           DB  00H, 08H, 14H, 22H, 41H, 14H, 14H, 14H     ;..."A...

0349 41141414                
034D 14144122        128     Q034D:           DB  14H, 14H, 41H, 22H, 14H, 08H, 00H, 02H     ;..A"....

0351 14080002                
0355 01510906        129     Q0355:           DB  01H, 51H, 09H, 06H, 32H, 49H, 79H, 41H     ;.Q..2IyA

0359 32497941                
035D 3E7E1111        130     Q035D:           DB  3EH, 7EH, 11H, 11H, 11H, 7EH, 7FH, 49H     ;>~...~I

0361 117E7F49                
0365 4949363E        131     Q0365:           DB  49H, 49H, 36H, 3EH, 41H, 41H, 41H, 22H     ;II6>AAA"

0369 41414122                
036D 7F414122        132     Q036D:           DB  7FH, 41H, 41H, 22H, 1CH, 7FH, 49H, 49H     ;AA".II

0371 1C7F4949                
0375 49417F09        133     Q0375:           DB  49H, 41H, 7FH, 09H, 09H, 01H, 01H, 3EH     ;IA....>

0379 0901013E                
037D 41415132        134     Q037D:           DB  41H, 41H, 51H, 32H, 7FH, 08H, 08H, 08H     ;AAQ2...

0381 7F080808                
0385 7F00417F        135     Q0385:           DB  7FH, 00H, 41H, 7FH, 41H, 00H, 20H, 40H     ;.AA..@

0389 41002040                
038D 413F017F        136     Q038D:           DB  41H, 3FH, 01H, 7FH, 08H, 14H, 22H, 41H     ;A?..."A

0391 08142241                
0395 7F404040        137     Q0395:           DB  7FH, 40H, 40H, 40H, 40H, 7FH, 02H, 04H     ;@@@@..

0399 407F0204                
039D 027F7F04        138     Q039D:           DB  02H, 7FH, 7FH, 04H, 08H, 10H, 7FH, 3EH     ;....>

03A1 08107F3E                
03A5 4141413E        139     Q03A5:           DB  41H, 41H, 41H, 3EH, 7FH, 09H, 09H, 09H     ;AAA>...

03A9 7F090909                
03AD 063E4151        140     Q03AD:           DB  06H, 3EH, 41H, 51H, 21H, 5EH, 7FH, 09H     ;.>AQ!^.

03B1 215E7F09                
03B5 19294646        141     Q03B5:           DB  19H, 29H, 46H, 46H, 49H, 49H, 49H, 31H     ;.)FFIII1

03B9 49494931                
A51 MACRO ASSEMBLER  __________V0_0                                                       12/04/2016 21:52:57 PAGE     5

03BD 01017F01        142     Q03BD:           DB  01H, 01H, 7FH, 01H, 01H, 3FH, 40H, 40H     ;....?@@

03C1 013F4040                
03C5 403F1F20        143     Q03C5:           DB  40H, 3FH, 1FH, 20H, 40H, 20H, 1FH, 7FH     ;@?..@..

03C9 40201F7F                
03CD 2018207F        144     Q03CD:           DB  20H, 18H, 20H, 7FH, 63H, 14H, 08H, 14H     ;...c...

03D1 63140814                
03D5 63030478        145     Q03D5:           DB  63H, 03H, 04H, 78H, 04H, 03H, 61H, 51H     ;c..x..aQ

03D9 04036151                
03DD 49454300        146     Q03DD:           DB  49H, 45H, 43H, 00H, 00H, 7FH, 41H, 41H     ;IEC..AA

03E1 007F4141                
03E5 02040810        147     Q03E5:           DB  02H, 04H, 08H, 10H, 20H, 41H, 41H, 7FH     ;.....AA

03E9 2041417F                
03ED 00000402        148     Q03ED:           DB  00H, 00H, 04H, 02H, 01H, 02H, 04H, 40H     ;.......@

03F1 01020440                
03F5 40404040        149     Q03F5:           DB  40H, 40H, 40H, 40H, 00H, 01H, 02H, 04H     ;@@@@....

03F9 00010204                
03FD 00205454        150     Q03FD:           DB  00H, 20H, 54H, 54H, 54H, 78H, 7FH, 48H     ;..TTTxH

0401 54787F48                
0405 44443838        151     Q0405:           DB  44H, 44H, 38H, 38H, 44H, 44H, 44H, 20H     ;DD88DDD.

0409 44444420                
040D 38444448        152     Q040D:           DB  38H, 44H, 44H, 48H, 7FH, 38H, 54H, 54H     ;8DDH8TT

0411 7F385454                
0415 5418087E        153     Q0415:           DB  54H, 18H, 08H, 7EH, 09H, 01H, 02H, 08H     ;T..~....

0419 09010208                
041D 1454543C        154     Q041D:           DB  14H, 54H, 54H, 3CH, 7FH, 08H, 04H, 04H     ;.TT<...

0421 7F080404                
0425 7800447D        155     Q0425:           DB  78H, 00H, 44H, 7DH, 40H, 00H, 20H, 40H     ;x.D}@..@

0429 40002040                
042D 443D0000        156     Q042D:           DB  44H, 3DH, 00H, 00H, 7FH, 10H, 28H, 44H     ;D=...(D

0431 7F102844                
0435 00417F40        157     Q0435:           DB  00H, 41H, 7FH, 40H, 00H, 7CH, 04H, 18H     ;.A@.|..

0439 007C0418                
043D 04787C08        158     Q043D:           DB  04H, 78H, 7CH, 08H, 04H, 04H, 78H, 38H     ;.x|...x8

0441 04047838                
0445 44444438        159     Q0445:           DB  44H, 44H, 44H, 38H, 7CH, 14H, 14H, 14H     ;DDD8|...

0449 7C141414                
044D 08081414        160     Q044D:           DB  08H, 08H, 14H, 14H, 18H, 7CH, 7CH, 08H     ;.....||.

0451 187C7C08                
0455 04040848        161     Q0455:           DB  04H, 04H, 08H, 48H, 54H, 54H, 54H, 20H     ;...HTTT.

0459 54545420                
045D 043F4440        162     Q045D:           DB  04H, 3FH, 44H, 40H, 20H, 3CH, 40H, 40H     ;.?D@.<@@

0461 203C4040                
0465 207C1C20        163     Q0465:           DB  20H, 7CH, 1CH, 20H, 40H, 20H, 1CH, 3CH     ;.|..@..<

0469 40201C3C                
046D 4030403C        164     Q046D:           DB  40H, 30H, 40H, 3CH, 44H, 28H, 10H, 28H     ;@0@<D(.(

0471 44281028                
0475 440C5050        165     Q0475:           DB  44H, 0CH, 50H, 50H, 50H, 3CH, 44H, 64H     ;D.PPP<Dd

0479 503C4464                
047D 544C4400        166     Q047D:           DB  54H, 4CH, 44H, 00H, 08H, 36H, 41H, 00H     ;TLD..6A.

0481 08364100                
0485 00007F00        167     Q0485:           DB  00H, 00H, 7FH, 00H, 00H, 00H, 41H, 36H     ;.....A6

0489 00004136                
048D 08000201        168     Q048D:           DB  08H, 00H, 02H, 01H, 02H, 04H, 02H,0FFH     ;........

0491 020402FF                
0495 FFFFFFFF        169     Q0495:           DB 0FFH,0FFH,0FFH,0FFH,0FFH, 01H, 01H, 01H     ;........

0499 FF010101                
049D 01010101        170     Q049D:           DB  01H, 01H, 01H, 01H, 01H, 81H, 01H, 01H     ;........

04A1 01810101                
04A5 01010101        171     Q04A5:           DB  01H, 01H, 01H, 01H, 01H, 01H, 81H, 01H     ;........

04A9 01018101                
04AD 01010101        172     Q04AD:           DB  01H, 01H, 01H, 01H, 01H, 01H, 01H, 81H     ;........

04B1 01010181                
04B5 01010101        173     Q04B5:           DB  01H, 01H, 01H, 01H, 01H, 01H, 01H, 01H     ;........

04B9 01010101                
04BD 81010101        174     Q04BD:           DB  81H, 01H, 01H, 01H, 01H, 01H, 01H, 01H     ;........

04C1 01010101                
A51 MACRO ASSEMBLER  __________V0_0                                                       12/04/2016 21:52:57 PAGE     6

04C5 01810101        175     Q04C5:           DB  01H, 81H, 01H, 01H, 01H, 01H, 01H, 01H     ;........

04C9 01010101                
04CD 01018101        176     Q04CD:           DB  01H, 01H, 81H, 01H, 01H, 01H, 01H, 01H     ;........

04D1 01010101                
04D5 010181FF        177     Q04D5:           DB  01H, 01H, 81H,0FFH, 81H, 01H, 01H, 01H     ;........

04D9 81010101                
04DD 01010101        178     Q04DD:           DB  01H, 01H, 01H, 01H, 81H, 01H, 01H, 01H     ;........

04E1 81010101                
04E5 01010101        179     Q04E5:           DB  01H, 01H, 01H, 01H, 01H, 81H, 01H, 01H     ;........

04E9 01810101                
04ED 01010101        180     Q04ED:           DB  01H, 01H, 01H, 01H, 01H, 01H, 81H, 01H     ;........

04F1 01018101                
04F5 01010101        181     Q04F5:           DB  01H, 01H, 01H, 01H, 01H, 01H, 01H, 81H     ;........

04F9 01010181                
04FD 01010101        182     Q04FD:           DB  01H, 01H, 01H, 01H, 01H, 01H, 01H, 01H     ;........

0501 01010101                
0505 81010101        183     Q0505:           DB  81H, 01H, 01H, 01H, 01H, 01H, 01H, 01H     ;........

0509 01010101                
050D 01810101        184     Q050D:           DB  01H, 81H, 01H, 01H, 01H, 01H, 01H, 01H     ;........

0511 01010101                
0515 0101FFFF        185     Q0515:           DB  01H, 01H,0FFH,0FFH, 00H, 00H, 00H, 00H     ;........

0519 00000000                
051D 00000000        186     Q051D:           DB  00H, 00H, 00H, 00H, 40H, 00H, 00H, 00H     ;....@...

0521 40000000                
0525 00000000        187     Q0525:           DB  00H, 00H, 00H, 00H, 00H, 40H, 00H, 00H     ;.....@..

0529 00400000                
052D 00000000        188     Q052D:           DB  00H, 00H, 00H, 00H, 00H, 00H, 40H, 00H     ;......@.

0531 00004000                
0535 00000000        189     Q0535:           DB  00H, 00H, 00H, 00H, 00H, 00H, 00H, 40H     ;.......@

0539 00000040                
053D 00000000        190     Q053D:           DB  00H, 00H, 00H, 00H, 00H, 00H, 00H, 00H     ;........

0541 00000000                
0545 40000000        191     Q0545:           DB  40H, 00H, 00H, 00H, 00H, 00H, 00H, 00H     ;@.......

0549 00000000                
054D 00400000        192     Q054D:           DB  00H, 40H, 00H, 00H, 00H, 00H, 00H, 00H     ;.@......

0551 00000000                
0555 0040FF40        193     Q0555:           DB  00H, 40H,0FFH, 40H, 00H, 00H, 00H, 00H     ;.@.@....

0559 00000000                
055D 00000040        194     Q055D:           DB  00H, 00H, 00H, 40H, 00H, 00H, 00H, 00H     ;...@....

0561 00000000                
0565 00000000        195     Q0565:           DB  00H, 00H, 00H, 00H, 40H, 00H, 00H, 00H     ;....@...

0569 40000000                
056D 00000000        196     Q056D:           DB  00H, 00H, 00H, 00H, 00H, 40H, 00H, 00H     ;.....@..

0571 00400000                
0575 00000000        197     Q0575:           DB  00H, 00H, 00H, 00H, 00H, 00H, 40H, 00H     ;......@.

0579 00004000                
057D 00000000        198     Q057D:           DB  00H, 00H, 00H, 00H, 00H, 00H, 00H, 40H     ;.......@

0581 00000040                
0585 00000000        199     Q0585:           DB  00H, 00H, 00H, 00H, 00H, 00H, 00H, 00H     ;........

0589 00000000                
058D 40000000        200     Q058D:           DB  40H, 00H, 00H, 00H, 00H, 00H, 00H, 00H     ;@.......

0591 00000000                
0595 00FFFF00        201     Q0595:           DB  00H,0FFH,0FFH, 00H, 00H, 00H, 00H, 00H     ;........

0599 00000000                
059D 00000020        202     Q059D:           DB  00H, 00H, 00H, 20H, 00H, 00H, 00H, 00H     ;........

05A1 00000000                
05A5 00000000        203     Q05A5:           DB  00H, 00H, 00H, 00H, 20H, 00H, 00H, 00H     ;........

05A9 20000000                
05AD 00000000        204     Q05AD:           DB  00H, 00H, 00H, 00H, 00H, 20H, 00H, 00H     ;........

05B1 00200000                
05B5 00000000        205     Q05B5:           DB  00H, 00H, 00H, 00H, 00H, 00H, 20H, 00H     ;........

05B9 00002000                
05BD 00000000        206     Q05BD:           DB  00H, 00H, 00H, 00H, 00H, 00H, 00H, 20H     ;........

05C1 00000020                
05C5 00000000        207     Q05C5:           DB  00H, 00H, 00H, 00H, 00H, 00H, 00H, 00H     ;........

05C9 00000000                
A51 MACRO ASSEMBLER  __________V0_0                                                       12/04/2016 21:52:57 PAGE     7

05CD 20000000        208     Q05CD:           DB  20H, 00H, 00H, 00H, 00H, 00H, 00H, 00H     ;........

05D1 00000000                
05D5 20FF2000        209     Q05D5:           DB  20H,0FFH, 20H, 00H, 00H, 00H, 00H, 00H     ;........

05D9 00000000                
05DD 00002000        210     Q05DD:           DB  00H, 00H, 20H, 00H, 00H, 00H, 00H, 00H     ;........

05E1 00000000                
05E5 00000020        211     Q05E5:           DB  00H, 00H, 00H, 20H, 00H, 00H, 00H, 00H     ;........

05E9 00000000                
05ED 00000000        212     Q05ED:           DB  00H, 00H, 00H, 00H, 20H, 00H, 00H, 00H     ;........

05F1 20000000                
05F5 00000000        213     Q05F5:           DB  00H, 00H, 00H, 00H, 00H, 20H, 00H, 00H     ;........

05F9 00200000                
05FD 00000000        214     Q05FD:           DB  00H, 00H, 00H, 00H, 00H, 00H, 20H, 00H     ;........

0601 00002000                
0605 00000000        215     Q0605:           DB  00H, 00H, 00H, 00H, 00H, 00H, 00H, 20H     ;........

0609 00000020                
060D 00000000        216     Q060D:           DB  00H, 00H, 00H, 00H, 00H, 00H, 00H, 00H     ;........

0611 00000000                
0615 FFFF1010        217     Q0615:           DB 0FFH,0FFH, 10H, 10H, 10H, 10H, 10H, 10H     ;........

0619 10101010                
061D 10103810        218     Q061D:           DB  10H, 10H, 38H, 10H, 10H, 10H, 10H, 10H     ;..8.....

0621 10101010                
0625 10101038        219     Q0625:           DB  10H, 10H, 10H, 38H, 10H, 10H, 10H, 10H     ;...8....

0629 10101010                
062D 10101010        220     Q062D:           DB  10H, 10H, 10H, 10H, 38H, 10H, 10H, 10H     ;....8...

0631 38101010                
0635 10101010        221     Q0635:           DB  10H, 10H, 10H, 10H, 10H, 38H, 10H, 10H     ;.....8..

0639 10381010                
063D 10101010        222     Q063D:           DB  10H, 10H, 10H, 10H, 10H, 10H, 38H, 10H     ;......8.

0641 10103810                
0645 10101010        223     Q0645:           DB  10H, 10H, 10H, 10H, 10H, 10H, 10H, 38H     ;.......8

0649 10101038                
064D 10101010        224     Q064D:           DB  10H, 10H, 10H, 10H, 10H, 10H, 10H, 10H     ;........

0651 10101010                
0655 FF101010        225     Q0655:           DB 0FFH, 10H, 10H, 10H, 10H, 10H, 10H, 10H     ;........

0659 10101010                
065D 10381010        226     Q065D:           DB  10H, 38H, 10H, 10H, 10H, 10H, 10H, 10H     ;.8......

0661 10101010                
0665 10103810        227     Q0665:           DB  10H, 10H, 38H, 10H, 10H, 10H, 10H, 10H     ;..8.....

0669 10101010                
066D 10101038        228     Q066D:           DB  10H, 10H, 10H, 38H, 10H, 10H, 10H, 10H     ;...8....

0671 10101010                
0675 10101010        229     Q0675:           DB  10H, 10H, 10H, 10H, 38H, 10H, 10H, 10H     ;....8...

0679 38101010                
067D 10101010        230     Q067D:           DB  10H, 10H, 10H, 10H, 10H, 38H, 10H, 10H     ;.....8..

0681 10381010                
0685 10101010        231     Q0685:           DB  10H, 10H, 10H, 10H, 10H, 10H, 38H, 10H     ;......8.

0689 10103810                
068D 10101010        232     Q068D:           DB  10H, 10H, 10H, 10H, 10H, 10H, 10H,0FFH     ;........

0691 101010FF                
0695 FF000000        233     Q0695:           DB 0FFH, 00H, 00H, 00H, 00H, 00H, 00H, 00H     ;........

0699 00000000                
069D 00080000        234     Q069D:           DB  00H, 08H, 00H, 00H, 00H, 00H, 00H, 00H     ;........

06A1 00000000                
06A5 00000800        235     Q06A5:           DB  00H, 00H, 08H, 00H, 00H, 00H, 00H, 00H     ;........

06A9 00000000                
06AD 00000008        236     Q06AD:           DB  00H, 00H, 00H, 08H, 00H, 00H, 00H, 00H     ;........

06B1 00000000                
06B5 00000000        237     Q06B5:           DB  00H, 00H, 00H, 00H, 08H, 00H, 00H, 00H     ;........

06B9 08000000                
06BD 00000000        238     Q06BD:           DB  00H, 00H, 00H, 00H, 00H, 08H, 00H, 00H     ;........

06C1 00080000                
06C5 00000000        239     Q06C5:           DB  00H, 00H, 00H, 00H, 00H, 00H, 08H, 00H     ;........

06C9 00000800                
06CD 00000000        240     Q06CD:           DB  00H, 00H, 00H, 00H, 00H, 00H, 08H,0FFH     ;........

06D1 000008FF                
A51 MACRO ASSEMBLER  __________V0_0                                                       12/04/2016 21:52:57 PAGE     8

06D5 08000000        241     Q06D5:           DB  08H, 00H, 00H, 00H, 00H, 00H, 00H, 00H     ;........

06D9 00000000                
06DD 08000000        242     Q06DD:           DB  08H, 00H, 00H, 00H, 00H, 00H, 00H, 00H     ;........

06E1 00000000                
06E5 00080000        243     Q06E5:           DB  00H, 08H, 00H, 00H, 00H, 00H, 00H, 00H     ;........

06E9 00000000                
06ED 00000800        244     Q06ED:           DB  00H, 00H, 08H, 00H, 00H, 00H, 00H, 00H     ;........

06F1 00000000                
06F5 00000008        245     Q06F5:           DB  00H, 00H, 00H, 08H, 00H, 00H, 00H, 00H     ;........

06F9 00000000                
06FD 00000000        246     Q06FD:           DB  00H, 00H, 00H, 00H, 08H, 00H, 00H, 00H     ;........

0701 08000000                
0705 00000000        247     Q0705:           DB  00H, 00H, 00H, 00H, 00H, 08H, 00H, 00H     ;........

0709 00080000                
070D 00000000        248     Q070D:           DB  00H, 00H, 00H, 00H, 00H, 00H,0FFH,0FFH     ;........

0711 0000FFFF                
0715 00000000        249     Q0715:           DB  00H, 00H, 00H, 00H, 00H, 00H, 00H, 00H     ;........

0719 00000000                
071D 04000000        250     Q071D:           DB  04H, 00H, 00H, 00H, 00H, 00H, 00H, 00H     ;........

0721 00000000                
0725 00040000        251     Q0725:           DB  00H, 04H, 00H, 00H, 00H, 00H, 00H, 00H     ;........

0729 00000000                
072D 00000400        252     Q072D:           DB  00H, 00H, 04H, 00H, 00H, 00H, 00H, 00H     ;........

0731 00000000                
0735 00000004        253     Q0735:           DB  00H, 00H, 00H, 04H, 00H, 00H, 00H, 00H     ;........

0739 00000000                
073D 00000000        254     Q073D:           DB  00H, 00H, 00H, 00H, 04H, 00H, 00H, 00H     ;........

0741 04000000                
0745 00000000        255     Q0745:           DB  00H, 00H, 00H, 00H, 00H, 04H, 00H, 00H     ;........

0749 00040000                
074D 00000000        256     Q074D:           DB  00H, 00H, 00H, 00H, 00H, 04H,0FFH, 04H     ;........

0751 0004FF04                
0755 00000000        257     Q0755:           DB  00H, 00H, 00H, 00H, 00H, 00H, 00H, 04H     ;........

0759 00000004                
075D 00000000        258     Q075D:           DB  00H, 00H, 00H, 00H, 00H, 00H, 00H, 00H     ;........

0761 00000000                
0765 04000000        259     Q0765:           DB  04H, 00H, 00H, 00H, 00H, 00H, 00H, 00H     ;........

0769 00000000                
076D 00040000        260     Q076D:           DB  00H, 04H, 00H, 00H, 00H, 00H, 00H, 00H     ;........

0771 00000000                
0775 00000400        261     Q0775:           DB  00H, 00H, 04H, 00H, 00H, 00H, 00H, 00H     ;........

0779 00000000                
077D 00000004        262     Q077D:           DB  00H, 00H, 00H, 04H, 00H, 00H, 00H, 00H     ;........

0781 00000000                
0785 00000000        263     Q0785:           DB  00H, 00H, 00H, 00H, 04H, 00H, 00H, 00H     ;........

0789 04000000                
078D 00000000        264     Q078D:           DB  00H, 00H, 00H, 00H, 00H,0FFH,0FFH, 80H     ;........

0791 00FFFF80                
0795 80808080        265     Q0795:           DB  80H, 80H, 80H, 80H, 80H, 80H, 80H, 82H     ;........

0799 80808082                
079D 80808080        266     Q079D:           DB  80H, 80H, 80H, 80H, 80H, 80H, 80H, 80H     ;........

07A1 80808080                
07A5 82808080        267     Q07A5:           DB  82H, 80H, 80H, 80H, 80H, 80H, 80H, 80H     ;........

07A9 80808080                
07AD 80828080        268     Q07AD:           DB  80H, 82H, 80H, 80H, 80H, 80H, 80H, 80H     ;........

07B1 80808080                
07B5 80808280        269     Q07B5:           DB  80H, 80H, 82H, 80H, 80H, 80H, 80H, 80H     ;........

07B9 80808080                
07BD 80808082        270     Q07BD:           DB  80H, 80H, 80H, 82H, 80H, 80H, 80H, 80H     ;........

07C1 80808080                
07C5 80808080        271     Q07C5:           DB  80H, 80H, 80H, 80H, 82H, 80H, 80H, 80H     ;........

07C9 82808080                
07CD 80808080        272     Q07CD:           DB  80H, 80H, 80H, 80H, 82H,0FFH, 82H, 80H     ;........

07D1 82FF8280                
07D5 80808080        273     Q07D5:           DB  80H, 80H, 80H, 80H, 80H, 80H, 82H, 80H     ;........

07D9 80808280                
A51 MACRO ASSEMBLER  __________V0_0                                                       12/04/2016 21:52:57 PAGE     9

07DD 80808080        274     Q07DD:           DB  80H, 80H, 80H, 80H, 80H, 80H, 80H, 82H     ;........

07E1 80808082                
07E5 80808080        275     Q07E5:           DB  80H, 80H, 80H, 80H, 80H, 80H, 80H, 80H     ;........

07E9 80808080                
07ED 82808080        276     Q07ED:           DB  82H, 80H, 80H, 80H, 80H, 80H, 80H, 80H     ;........

07F1 80808080                
07F5 80828080        277     Q07F5:           DB  80H, 82H, 80H, 80H, 80H, 80H, 80H, 80H     ;........

07F9 80808080                
07FD 80808280        278     Q07FD:           DB  80H, 80H, 82H, 80H, 80H, 80H, 80H, 80H     ;........

0801 80808080                
0805 80808082        279     Q0805:           DB  80H, 80H, 80H, 82H, 80H, 80H, 80H, 80H     ;........

0809 80808080                
080D 80808080        280     Q080D:           DB  80H, 80H, 80H, 80H,0FFH,0FFH, 01H, 01H     ;........

0811 FFFF0101                
0815 01010101        281     Q0815:           DB  01H, 01H, 01H, 01H, 01H, 01H, 01H, 01H     ;........

0819 01010101                
081D 01010101        282     Q081D:           DB  01H, 01H, 01H, 01H, 01H, 01H, 01H, 01H     ;........

0821 01010101                
0825 01010101        283     Q0825:           DB  01H, 01H, 01H, 01H, 01H, 01H, 01H, 01H     ;........

0829 01010101                
082D 01010101        284     Q082D:           DB  01H, 01H, 01H, 01H, 01H, 01H, 01H, 01H     ;........

0831 01010101                
0835 01010101        285     Q0835:           DB  01H, 01H, 01H, 01H, 01H, 01H, 01H, 01H     ;........

0839 01010101                
083D 01010101        286     Q083D:           DB  01H, 01H, 01H, 01H, 01H, 01H, 01H, 01H     ;........

0841 01010101                
0845 01010101        287     Q0845:           DB  01H, 01H, 01H, 01H, 01H, 01H, 01H, 01H     ;........

0849 01010101                
084D 01010181        288     Q084D:           DB  01H, 01H, 01H, 81H,0FFH, 81H, 01H, 01H     ;........

0851 FF810101                
0855 01010101        289     Q0855:           DB  01H, 01H, 01H, 01H, 01H, 01H, 01H, 01H     ;........

0859 01010101                
085D 01010101        290     Q085D:           DB  01H, 01H, 01H, 01H, 01H, 01H, 01H, 01H     ;........

0861 01010101                
0865 01010101        291     Q0865:           DB  01H, 01H, 01H, 01H, 01H, 01H, 01H, 01H     ;........

0869 01010101                
086D 01010101        292     Q086D:           DB  01H, 01H, 01H, 01H, 01H, 01H, 01H, 01H     ;........

0871 01010101                
0875 01010101        293     Q0875:           DB  01H, 01H, 01H, 01H, 01H, 01H, 01H, 01H     ;........

0879 01010101                
087D 01010101        294     Q087D:           DB  01H, 01H, 01H, 01H, 01H, 01H, 01H, 01H     ;........

0881 01010101                
0885 01010101        295     Q0885:           DB  01H, 01H, 01H, 01H, 01H, 01H, 01H, 01H     ;........

0889 01010101                
088D 010101FF        296     Q088D:           DB  01H, 01H, 01H,0FFH,0FFH, 00H, 00H, 00H     ;........

0891 FF000000                
0895 00000000        297     Q0895:           DB  00H, 00H, 00H, 00H, 00H, 00H, 00H, 00H     ;........

0899 00000000                
089D 00000000        298     Q089D:           DB  00H, 00H, 00H, 00H, 00H, 00H, 00H, 00H     ;........

08A1 00000000                
08A5 00000000        299     Q08A5:           DB  00H, 00H, 00H, 00H, 00H, 00H, 00H, 00H     ;........

08A9 00000000                
08AD 00000000        300     Q08AD:           DB  00H, 00H, 00H, 00H, 00H, 00H, 00H, 00H     ;........

08B1 00000000                
08B5 00000000        301     Q08B5:           DB  00H, 00H, 00H, 00H, 00H, 00H, 00H, 00H     ;........

08B9 00000000                
08BD 00000000        302     Q08BD:           DB  00H, 00H, 00H, 00H, 00H, 00H, 00H, 00H     ;........

08C1 00000000                
08C5 00000000        303     Q08C5:           DB  00H, 00H, 00H, 00H, 00H, 00H, 00H, 00H     ;........

08C9 00000000                
08CD 000040FF        304     Q08CD:           DB  00H, 00H, 40H,0FFH, 40H, 00H, 00H, 00H     ;..@.@...

08D1 40000000                
08D5 00000000        305     Q08D5:           DB  00H, 00H, 00H, 00H, 00H, 00H, 00H, 00H     ;........

08D9 00000000                
08DD 00000000        306     Q08DD:           DB  00H, 00H, 00H, 00H, 00H, 00H, 00H, 00H     ;........

08E1 00000000                
A51 MACRO ASSEMBLER  __________V0_0                                                       12/04/2016 21:52:57 PAGE    10

08E5 00000000        307     Q08E5:           DB  00H, 00H, 00H, 00H, 00H, 00H, 00H, 00H     ;........

08E9 00000000                
08ED 00000000        308     Q08ED:           DB  00H, 00H, 00H, 00H, 00H, 00H, 00H, 00H     ;........

08F1 00000000                
08F5 00000000        309     Q08F5:           DB  00H, 00H, 00H, 00H, 00H, 00H, 00H, 00H     ;........

08F9 00000000                
08FD 00000000        310     Q08FD:           DB  00H, 00H, 00H, 00H, 00H, 00H, 00H, 00H     ;........

0901 00000000                
0905 00000000        311     Q0905:           DB  00H, 00H, 00H, 00H, 00H, 00H, 00H, 00H     ;........

0909 00000000                
090D 0000FFFF        312     Q090D:           DB  00H, 00H,0FFH,0FFH, 00H, 00H, 00H, 00H     ;........

0911 00000000                
0915 00000000        313     Q0915:           DB  00H, 00H, 00H, 00H, 00H, 00H, 00H, 00H     ;........

0919 00000000                
091D 00000000        314     Q091D:           DB  00H, 00H, 00H, 00H, 00H, 00H, 00H, 00H     ;........

0921 00000000                
0925 00000000        315     Q0925:           DB  00H, 00H, 00H, 00H, 00H, 00H, 00H, 00H     ;........

0929 00000000                
092D 00000000        316     Q092D:           DB  00H, 00H, 00H, 00H, 00H, 00H, 00H, 00H     ;........

0931 00000000                
0935 00000000        317     Q0935:           DB  00H, 00H, 00H, 00H, 00H, 00H, 00H, 00H     ;........

0939 00000000                
093D 00000000        318     Q093D:           DB  00H, 00H, 00H, 00H, 00H, 00H, 00H, 00H     ;........

0941 00000000                
0945 00000000        319     Q0945:           DB  00H, 00H, 00H, 00H, 00H, 00H, 00H, 00H     ;........

0949 00000000                
094D 0020FF20        320     Q094D:           DB  00H, 20H,0FFH, 20H, 00H, 00H, 00H, 00H     ;........

0951 00000000                
0955 00000000        321     Q0955:           DB  00H, 00H, 00H, 00H, 00H, 00H, 00H, 00H     ;........

0959 00000000                
095D 00000000        322     Q095D:           DB  00H, 00H, 00H, 00H, 00H, 00H, 00H, 00H     ;........

0961 00000000                
0965 00000000        323     Q0965:           DB  00H, 00H, 00H, 00H, 00H, 00H, 00H, 00H     ;........

0969 00000000                
096D 00000000        324     Q096D:           DB  00H, 00H, 00H, 00H, 00H, 00H, 00H, 00H     ;........

0971 00000000                
0975 00000000        325     Q0975:           DB  00H, 00H, 00H, 00H, 00H, 00H, 00H, 00H     ;........

0979 00000000                
097D 00000000        326     Q097D:           DB  00H, 00H, 00H, 00H, 00H, 00H, 00H, 00H     ;........

0981 00000000                
0985 00000000        327     Q0985:           DB  00H, 00H, 00H, 00H, 00H, 00H, 00H, 00H     ;........

0989 00000000                
098D 00FFFF10        328     Q098D:           DB  00H,0FFH,0FFH, 10H, 10H, 10H, 10H, 10H     ;........

0991 10101010                
0995 10101038        329     Q0995:           DB  10H, 10H, 10H, 38H, 10H, 10H, 10H, 10H     ;...8....

0999 10101010                
099D 10101010        330     Q099D:           DB  10H, 10H, 10H, 10H, 38H, 10H, 10H, 10H     ;....8...

09A1 38101010                
09A5 10101010        331     Q09A5:           DB  10H, 10H, 10H, 10H, 10H, 38H, 10H, 10H     ;.....8..

09A9 10381010                
09AD 10101010        332     Q09AD:           DB  10H, 10H, 10H, 10H, 10H, 10H, 38H, 10H     ;......8.

09B1 10103810                
09B5 10101010        333     Q09B5:           DB  10H, 10H, 10H, 10H, 10H, 10H, 10H, 38H     ;.......8

09B9 10101038                
09BD 10101010        334     Q09BD:           DB  10H, 10H, 10H, 10H, 10H, 10H, 10H, 10H     ;........

09C1 10101010                
09C5 38101010        335     Q09C5:           DB  38H, 10H, 10H, 10H, 10H, 10H, 10H, 10H     ;8.......

09C9 10101010                
09CD 10FF1010        336     Q09CD:           DB  10H,0FFH, 10H, 10H, 10H, 10H, 10H, 10H     ;........

09D1 10101010                
09D5 10103810        337     Q09D5:           DB  10H, 10H, 38H, 10H, 10H, 10H, 10H, 10H     ;..8.....

09D9 10101010                
09DD 10101038        338     Q09DD:           DB  10H, 10H, 10H, 38H, 10H, 10H, 10H, 10H     ;...8....

09E1 10101010                
09E5 10101010        339     Q09E5:           DB  10H, 10H, 10H, 10H, 38H, 10H, 10H, 10H     ;....8...

09E9 38101010                
A51 MACRO ASSEMBLER  __________V0_0                                                       12/04/2016 21:52:57 PAGE    11

09ED 10101010        340     Q09ED:           DB  10H, 10H, 10H, 10H, 10H, 38H, 10H, 10H     ;.....8..

09F1 10381010                
09F5 10101010        341     Q09F5:           DB  10H, 10H, 10H, 10H, 10H, 10H, 38H, 10H     ;......8.

09F9 10103810                
09FD 10101010        342     Q09FD:           DB  10H, 10H, 10H, 10H, 10H, 10H, 10H, 38H     ;.......8

0A01 10101038                
0A05 10101010        343     Q0A05:           DB  10H, 10H, 10H, 10H, 10H, 10H, 10H, 10H     ;........

0A09 10101010                
0A0D FFFF0000        344     Q0A0D:           DB 0FFH,0FFH, 00H, 00H, 00H, 00H, 00H, 00H     ;........

0A11 00000000                
0A15 00000000        345     Q0A15:           DB  00H, 00H, 00H, 00H, 00H, 00H, 00H, 00H     ;........

0A19 00000000                
0A1D 00000000        346     Q0A1D:           DB  00H, 00H, 00H, 00H, 00H, 00H, 00H, 00H     ;........

0A21 00000000                
0A25 00000000        347     Q0A25:           DB  00H, 00H, 00H, 00H, 00H, 00H, 00H, 00H     ;........

0A29 00000000                
0A2D 00000000        348     Q0A2D:           DB  00H, 00H, 00H, 00H, 00H, 00H, 00H, 00H     ;........

0A31 00000000                
0A35 00000000        349     Q0A35:           DB  00H, 00H, 00H, 00H, 00H, 00H, 00H, 00H     ;........

0A39 00000000                
0A3D 00000000        350     Q0A3D:           DB  00H, 00H, 00H, 00H, 00H, 00H, 00H, 00H     ;........

0A41 00000000                
0A45 00000000        351     Q0A45:           DB  00H, 00H, 00H, 00H, 00H, 00H, 00H, 08H     ;........

0A49 00000008                
0A4D FF080000        352     Q0A4D:           DB 0FFH, 08H, 00H, 00H, 00H, 00H, 00H, 00H     ;........

0A51 00000000                
0A55 00000000        353     Q0A55:           DB  00H, 00H, 00H, 00H, 00H, 00H, 00H, 00H     ;........

0A59 00000000                
0A5D 00000000        354     Q0A5D:           DB  00H, 00H, 00H, 00H, 00H, 00H, 00H, 00H     ;........

0A61 00000000                
0A65 00000000        355     Q0A65:           DB  00H, 00H, 00H, 00H, 00H, 00H, 00H, 00H     ;........

0A69 00000000                
0A6D 00000000        356     Q0A6D:           DB  00H, 00H, 00H, 00H, 00H, 00H, 00H, 00H     ;........

0A71 00000000                
0A75 00000000        357     Q0A75:           DB  00H, 00H, 00H, 00H, 00H, 00H, 00H, 00H     ;........

0A79 00000000                
0A7D 00000000        358     Q0A7D:           DB  00H, 00H, 00H, 00H, 00H, 00H, 00H, 00H     ;........

0A81 00000000                
0A85 00000000        359     Q0A85:           DB  00H, 00H, 00H, 00H, 00H, 00H, 00H,0FFH     ;........

0A89 000000FF                
0A8D FF000000        360     Q0A8D:           DB 0FFH, 00H, 00H, 00H, 00H, 00H, 00H, 00H     ;........

0A91 00000000                
0A95 00000000        361     Q0A95:           DB  00H, 00H, 00H, 00H, 00H, 00H, 00H, 00H     ;........

0A99 00000000                
0A9D 00000000        362     Q0A9D:           DB  00H, 00H, 00H, 00H, 00H, 00H, 00H, 00H     ;........

0AA1 00000000                
0AA5 00000000        363     Q0AA5:           DB  00H, 00H, 00H, 00H, 00H, 00H, 00H, 00H     ;........

0AA9 00000000                
0AAD 00000000        364     Q0AAD:           DB  00H, 00H, 00H, 00H, 00H, 00H, 00H, 00H     ;........

0AB1 00000000                
0AB5 00000000        365     Q0AB5:           DB  00H, 00H, 00H, 00H, 00H, 00H, 00H, 00H     ;........

0AB9 00000000                
0ABD 00000000        366     Q0ABD:           DB  00H, 00H, 00H, 00H, 00H, 00H, 00H, 00H     ;........

0AC1 00000000                
0AC5 00000000        367     Q0AC5:           DB  00H, 00H, 00H, 00H, 00H, 00H, 04H,0FFH     ;........

0AC9 000004FF                
0ACD 04000000        368     Q0ACD:           DB  04H, 00H, 00H, 00H, 00H, 00H, 00H, 00H     ;........

0AD1 00000000                
0AD5 00000000        369     Q0AD5:           DB  00H, 00H, 00H, 00H, 00H, 00H, 00H, 00H     ;........

0AD9 00000000                
0ADD 00000000        370     Q0ADD:           DB  00H, 00H, 00H, 00H, 00H, 00H, 00H, 00H     ;........

0AE1 00000000                
0AE5 00000000        371     Q0AE5:           DB  00H, 00H, 00H, 00H, 00H, 00H, 00H, 00H     ;........

0AE9 00000000                
0AED 00000000        372     Q0AED:           DB  00H, 00H, 00H, 00H, 00H, 00H, 00H, 00H     ;........

0AF1 00000000                
A51 MACRO ASSEMBLER  __________V0_0                                                       12/04/2016 21:52:57 PAGE    12

0AF5 00000000        373     Q0AF5:           DB  00H, 00H, 00H, 00H, 00H, 00H, 00H, 00H     ;........

0AF9 00000000                
0AFD 00000000        374     Q0AFD:           DB  00H, 00H, 00H, 00H, 00H, 00H, 00H, 00H     ;........

0B01 00000000                
0B05 00000000        375     Q0B05:           DB  00H, 00H, 00H, 00H, 00H, 00H,0FFH,0FFH     ;........

0B09 0000FFFF                
0B0D 80808080        376     Q0B0D:           DB  80H, 80H, 80H, 80H, 80H, 80H, 80H, 80H     ;........

0B11 80808080                
0B15 80808080        377     Q0B15:           DB  80H, 80H, 80H, 80H, 80H, 80H, 80H, 80H     ;........

0B19 80808080                
0B1D 80808080        378     Q0B1D:           DB  80H, 80H, 80H, 80H, 80H, 80H, 80H, 80H     ;........

0B21 80808080                
0B25 80808080        379     Q0B25:           DB  80H, 80H, 80H, 80H, 80H, 80H, 80H, 80H     ;........

0B29 80808080                
0B2D 80808080        380     Q0B2D:           DB  80H, 80H, 80H, 80H, 80H, 80H, 80H, 80H     ;........

0B31 80808080                
0B35 80808080        381     Q0B35:           DB  80H, 80H, 80H, 80H, 80H, 80H, 80H, 80H     ;........

0B39 80808080                
0B3D 80808080        382     Q0B3D:           DB  80H, 80H, 80H, 80H, 80H, 80H, 80H, 80H     ;........

0B41 80808080                
0B45 80808080        383     Q0B45:           DB  80H, 80H, 80H, 80H, 80H, 82H,0FFH, 82H     ;........

0B49 8082FF82                
0B4D 80808080        384     Q0B4D:           DB  80H, 80H, 80H, 80H, 80H, 80H, 80H, 80H     ;........

0B51 80808080                
0B55 80808080        385     Q0B55:           DB  80H, 80H, 80H, 80H, 80H, 80H, 80H, 80H     ;........

0B59 80808080                
0B5D 80808080        386     Q0B5D:           DB  80H, 80H, 80H, 80H, 80H, 80H, 80H, 80H     ;........

0B61 80808080                
0B65 80808080        387     Q0B65:           DB  80H, 80H, 80H, 80H, 80H, 80H, 80H, 80H     ;........

0B69 80808080                
0B6D 80808080        388     Q0B6D:           DB  80H, 80H, 80H, 80H, 80H, 80H, 80H, 80H     ;........

0B71 80808080                
0B75 80808080        389     Q0B75:           DB  80H, 80H, 80H, 80H, 80H, 80H, 80H, 80H     ;........

0B79 80808080                
0B7D 80808080        390     Q0B7D:           DB  80H, 80H, 80H, 80H, 80H, 80H, 80H, 80H     ;........

0B81 80808080                
0B85 80808080        391     Q0B85:           DB  80H, 80H, 80H, 80H, 80H,0FFH,0FFH, 01H     ;........

0B89 80FFFF01                
0B8D 01010101        392     Q0B8D:           DB  01H, 01H, 01H, 01H, 01H, 01H, 01H, 01H     ;........

0B91 01010101                
0B95 01010101        393     Q0B95:           DB  01H, 01H, 01H, 01H, 01H, 01H, 01H, 01H     ;........

0B99 01010101                
0B9D 01010101        394     Q0B9D:           DB  01H, 01H, 01H, 01H, 01H, 01H, 01H, 01H     ;........

0BA1 01010101                
0BA5 01010101        395     Q0BA5:           DB  01H, 01H, 01H, 01H, 01H, 01H, 01H, 01H     ;........

0BA9 01010101                
0BAD 01010101        396     Q0BAD:           DB  01H, 01H, 01H, 01H, 01H, 01H, 01H, 01H     ;........

0BB1 01010101                
0BB5 01010101        397     Q0BB5:           DB  01H, 01H, 01H, 01H, 01H, 01H, 01H, 01H     ;........

0BB9 01010101                
0BBD 01010101        398     Q0BBD:           DB  01H, 01H, 01H, 01H, 01H, 01H, 01H, 01H     ;........

0BC1 01010101                
0BC5 01010101        399     Q0BC5:           DB  01H, 01H, 01H, 01H, 01H, 01H, 01H, 01H     ;........

0BC9 01010101                
0BCD 01010101        400     Q0BCD:           DB  01H, 01H, 01H, 01H, 01H, 01H, 01H, 01H     ;........

0BD1 01010101                
0BD5 01010101        401     Q0BD5:           DB  01H, 01H, 01H, 01H, 01H, 01H, 01H, 01H     ;........

0BD9 01010101                
0BDD 01010101        402     Q0BDD:           DB  01H, 01H, 01H, 01H, 01H, 01H, 01H, 01H     ;........

0BE1 01010101                
0BE5 01010101        403     Q0BE5:           DB  01H, 01H, 01H, 01H, 01H, 01H, 01H, 01H     ;........

0BE9 01010101                
0BED 01010101        404     Q0BED:           DB  01H, 01H, 01H, 01H, 01H, 01H, 01H, 01H     ;........

0BF1 01010101                
0BF5 01010101        405     Q0BF5:           DB  01H, 01H, 01H, 01H, 01H, 01H, 01H, 01H     ;........

0BF9 01010101                
A51 MACRO ASSEMBLER  __________V0_0                                                       12/04/2016 21:52:57 PAGE    13

0BFD 01010101        406     Q0BFD:           DB  01H, 01H, 01H, 01H, 01H, 01H, 01H, 01H     ;........

0C01 01010101                
0C05 01010101        407     Q0C05:           DB  01H, 01H, 01H, 01H,0FFH,0FFH, 00H, 00H     ;........

0C09 FFFF0000                
0C0D 00000000        408     Q0C0D:           DB  00H, 00H, 00H, 00H, 00H, 00H, 00H, 00H     ;........

0C11 00000000                
0C15 00000000        409     Q0C15:           DB  00H, 00H, 00H, 00H, 00H, 00H, 00H, 00H     ;........

0C19 00000000                
0C1D 00000000        410     Q0C1D:           DB  00H, 00H, 00H, 00H, 00H, 00H, 00H, 00H     ;........

0C21 00000000                
0C25 00000000        411     Q0C25:           DB  00H, 00H, 00H, 00H, 00H, 00H, 00H, 00H     ;........

0C29 00000000                
0C2D 00000000        412     Q0C2D:           DB  00H, 00H, 00H, 00H, 00H, 00H, 00H, 00H     ;........

0C31 00000000                
0C35 00000000        413     Q0C35:           DB  00H, 00H, 00H, 00H, 00H, 00H, 00H, 00H     ;........

0C39 00000000                
0C3D 00000000        414     Q0C3D:           DB  00H, 00H, 00H, 00H, 00H, 00H, 00H, 00H     ;........

0C41 00000000                
0C45 00000000        415     Q0C45:           DB  00H, 00H, 00H, 00H, 00H, 00H, 00H, 00H     ;........

0C49 00000000                
0C4D 00000000        416     Q0C4D:           DB  00H, 00H, 00H, 00H, 00H, 00H, 00H, 00H     ;........

0C51 00000000                
0C55 00000000        417     Q0C55:           DB  00H, 00H, 00H, 00H, 00H, 00H, 00H, 00H     ;........

0C59 00000000                
0C5D 00000000        418     Q0C5D:           DB  00H, 00H, 00H, 00H, 00H, 00H, 00H, 00H     ;........

0C61 00000000                
0C65 00000000        419     Q0C65:           DB  00H, 00H, 00H, 00H, 00H, 00H, 00H, 00H     ;........

0C69 00000000                
0C6D 00000000        420     Q0C6D:           DB  00H, 00H, 00H, 00H, 00H, 00H, 00H, 00H     ;........

0C71 00000000                
0C75 00000000        421     Q0C75:           DB  00H, 00H, 00H, 00H, 00H, 00H, 00H, 00H     ;........

0C79 00000000                
0C7D 00000000        422     Q0C7D:           DB  00H, 00H, 00H, 00H, 00H, 00H, 00H, 00H     ;........

0C81 00000000                
0C85 000000FF        423     Q0C85:           DB  00H, 00H, 00H,0FFH,0FFH, 00H, 00H, 00H     ;........

0C89 FF000000                
0C8D 00000000        424     Q0C8D:           DB  00H, 00H, 00H, 00H, 00H, 00H, 00H, 00H     ;........

0C91 00000000                
0C95 00000000        425     Q0C95:           DB  00H, 00H, 00H, 00H, 00H, 00H, 00H, 00H     ;........

0C99 00000000                
0C9D 00000000        426     Q0C9D:           DB  00H, 00H, 00H, 00H, 00H, 00H, 00H, 00H     ;........

0CA1 00000000                
0CA5 00000000        427     Q0CA5:           DB  00H, 00H, 00H, 00H, 00H, 00H, 00H, 00H     ;........

0CA9 00000000                
0CAD 00000000        428     Q0CAD:           DB  00H, 00H, 00H, 00H, 00H, 00H, 00H, 00H     ;........

0CB1 00000000                
0CB5 00000000        429     Q0CB5:           DB  00H, 00H, 00H, 00H, 00H, 00H, 00H, 00H     ;........

0CB9 00000000                
0CBD 00000000        430     Q0CBD:           DB  00H, 00H, 00H, 00H, 00H, 00H, 00H, 00H     ;........

0CC1 00000000                
0CC5 00000000        431     Q0CC5:           DB  00H, 00H, 00H, 00H, 00H, 00H, 00H, 00H     ;........

0CC9 00000000                
0CCD 00000000        432     Q0CCD:           DB  00H, 00H, 00H, 00H, 00H, 00H, 00H, 00H     ;........

0CD1 00000000                
0CD5 00000000        433     Q0CD5:           DB  00H, 00H, 00H, 00H, 00H, 00H, 00H, 00H     ;........

0CD9 00000000                
0CDD 00000000        434     Q0CDD:           DB  00H, 00H, 00H, 00H, 00H, 00H, 00H, 00H     ;........

0CE1 00000000                
0CE5 00000000        435     Q0CE5:           DB  00H, 00H, 00H, 00H, 00H, 00H, 00H, 00H     ;........

0CE9 00000000                
0CED 00000000        436     Q0CED:           DB  00H, 00H, 00H, 00H, 00H, 00H, 00H, 00H     ;........

0CF1 00000000                
0CF5 00000000        437     Q0CF5:           DB  00H, 00H, 00H, 00H, 00H, 00H, 00H, 00H     ;........

0CF9 00000000                
0CFD 00000000        438     Q0CFD:           DB  00H, 00H, 00H, 00H, 00H, 00H, 00H, 00H     ;........

0D01 00000000                
A51 MACRO ASSEMBLER  __________V0_0                                                       12/04/2016 21:52:57 PAGE    14

0D05 0000FFFF        439     Q0D05:           DB  00H, 00H,0FFH,0FFH, 00H, 00H, 00H, 00H     ;........

0D09 00000000                
0D0D 00000000        440     Q0D0D:           DB  00H, 00H, 00H, 00H, 00H, 00H, 00H, 00H     ;........

0D11 00000000                
0D15 00000000        441     Q0D15:           DB  00H, 00H, 00H, 00H, 00H, 00H, 00H, 00H     ;........

0D19 00000000                
0D1D 00000000        442     Q0D1D:           DB  00H, 00H, 00H, 00H, 00H, 00H, 00H, 00H     ;........

0D21 00000000                
0D25 00000000        443     Q0D25:           DB  00H, 00H, 00H, 00H, 00H, 00H, 00H, 00H     ;........

0D29 00000000                
0D2D 00000000        444     Q0D2D:           DB  00H, 00H, 00H, 00H, 00H, 00H, 00H, 00H     ;........

0D31 00000000                
0D35 00000000        445     Q0D35:           DB  00H, 00H, 00H, 00H, 00H, 00H, 00H, 00H     ;........

0D39 00000000                
0D3D 00000000        446     Q0D3D:           DB  00H, 00H, 00H, 00H, 00H, 00H, 00H, 00H     ;........

0D41 00000000                
0D45 00000000        447     Q0D45:           DB  00H, 00H, 00H, 00H, 00H, 00H, 00H, 00H     ;........

0D49 00000000                
0D4D 00000000        448     Q0D4D:           DB  00H, 00H, 00H, 00H, 00H, 00H, 00H, 00H     ;........

0D51 00000000                
0D55 00000000        449     Q0D55:           DB  00H, 00H, 00H, 00H, 00H, 00H, 00H, 00H     ;........

0D59 00000000                
0D5D 00000000        450     Q0D5D:           DB  00H, 00H, 00H, 00H, 00H, 00H, 00H, 00H     ;........

0D61 00000000                
0D65 00000000        451     Q0D65:           DB  00H, 00H, 00H, 00H, 00H, 00H, 00H, 00H     ;........

0D69 00000000                
0D6D 00000000        452     Q0D6D:           DB  00H, 00H, 00H, 00H, 00H, 00H, 00H, 00H     ;........

0D71 00000000                
0D75 00000000        453     Q0D75:           DB  00H, 00H, 00H, 00H, 00H, 00H, 00H, 00H     ;........

0D79 00000000                
0D7D 00000000        454     Q0D7D:           DB  00H, 00H, 00H, 00H, 00H, 00H, 00H, 00H     ;........

0D81 00000000                
0D85 00FFFF00        455     Q0D85:           DB  00H,0FFH,0FFH, 00H, 00H, 00H, 00H, 00H     ;........

0D89 00000000                
0D8D 00000000        456     Q0D8D:           DB  00H, 00H, 00H, 00H, 00H, 00H, 00H, 00H     ;........

0D91 00000000                
0D95 00000000        457     Q0D95:           DB  00H, 00H, 00H, 00H, 00H, 00H, 00H, 00H     ;........

0D99 00000000                
0D9D 00000000        458     Q0D9D:           DB  00H, 00H, 00H, 00H, 00H, 00H, 00H, 00H     ;........

0DA1 00000000                
0DA5 00000000        459     Q0DA5:           DB  00H, 00H, 00H, 00H, 00H, 00H, 00H, 00H     ;........

0DA9 00000000                
0DAD 00000000        460     Q0DAD:           DB  00H, 00H, 00H, 00H, 00H, 00H, 00H, 00H     ;........

0DB1 00000000                
0DB5 00000000        461     Q0DB5:           DB  00H, 00H, 00H, 00H, 00H, 00H, 00H, 00H     ;........

0DB9 00000000                
0DBD 00000000        462     Q0DBD:           DB  00H, 00H, 00H, 00H, 00H, 00H, 00H, 00H     ;........

0DC1 00000000                
0DC5 00000000        463     Q0DC5:           DB  00H, 00H, 00H, 00H, 00H, 00H, 00H, 00H     ;........

0DC9 00000000                
0DCD 00000000        464     Q0DCD:           DB  00H, 00H, 00H, 00H, 00H, 00H, 00H, 00H     ;........

0DD1 00000000                
0DD5 00000000        465     Q0DD5:           DB  00H, 00H, 00H, 00H, 00H, 00H, 00H, 00H     ;........

0DD9 00000000                
0DDD 00000000        466     Q0DDD:           DB  00H, 00H, 00H, 00H, 00H, 00H, 00H, 00H     ;........

0DE1 00000000                
0DE5 00000000        467     Q0DE5:           DB  00H, 00H, 00H, 00H, 00H, 00H, 00H, 00H     ;........

0DE9 00000000                
0DED 00000000        468     Q0DED:           DB  00H, 00H, 00H, 00H, 00H, 00H, 00H, 00H     ;........

0DF1 00000000                
0DF5 00000000        469     Q0DF5:           DB  00H, 00H, 00H, 00H, 00H, 00H, 00H, 00H     ;........

0DF9 00000000                
0DFD 00000000        470     Q0DFD:           DB  00H, 00H, 00H, 00H, 00H, 00H, 00H, 00H     ;........

0E01 00000000                
0E05 FFFF0000        471     Q0E05:           DB 0FFH,0FFH, 00H, 00H, 00H, 00H, 00H, 00H     ;........

0E09 00000000                
A51 MACRO ASSEMBLER  __________V0_0                                                       12/04/2016 21:52:57 PAGE    15

0E0D 00000000        472     Q0E0D:           DB  00H, 00H, 00H, 00H, 00H, 00H, 00H, 00H     ;........

0E11 00000000                
0E15 00000000        473     Q0E15:           DB  00H, 00H, 00H, 00H, 00H, 00H, 00H, 00H     ;........

0E19 00000000                
0E1D 00000000        474     Q0E1D:           DB  00H, 00H, 00H, 00H, 00H, 00H, 00H, 00H     ;........

0E21 00000000                
0E25 00000000        475     Q0E25:           DB  00H, 00H, 00H, 00H, 00H, 00H, 00H, 00H     ;........

0E29 00000000                
0E2D 00000000        476     Q0E2D:           DB  00H, 00H, 00H, 00H, 00H, 00H, 00H, 00H     ;........

0E31 00000000                
0E35 00000000        477     Q0E35:           DB  00H, 00H, 00H, 00H, 00H, 00H, 00H, 00H     ;........

0E39 00000000                
0E3D 00000000        478     Q0E3D:           DB  00H, 00H, 00H, 00H, 00H, 00H, 00H, 00H     ;........

0E41 00000000                
0E45 00000000        479     Q0E45:           DB  00H, 00H, 00H, 00H, 00H, 00H, 00H, 00H     ;........

0E49 00000000                
0E4D 00000000        480     Q0E4D:           DB  00H, 00H, 00H, 00H, 00H, 00H, 00H, 00H     ;........

0E51 00000000                
0E55 00000000        481     Q0E55:           DB  00H, 00H, 00H, 00H, 00H, 00H, 00H, 00H     ;........

0E59 00000000                
0E5D 00000000        482     Q0E5D:           DB  00H, 00H, 00H, 00H, 00H, 00H, 00H, 00H     ;........

0E61 00000000                
0E65 00000000        483     Q0E65:           DB  00H, 00H, 00H, 00H, 00H, 00H, 00H, 00H     ;........

0E69 00000000                
0E6D 00000000        484     Q0E6D:           DB  00H, 00H, 00H, 00H, 00H, 00H, 00H, 00H     ;........

0E71 00000000                
0E75 00000000        485     Q0E75:           DB  00H, 00H, 00H, 00H, 00H, 00H, 00H, 00H     ;........

0E79 00000000                
0E7D 00000000        486     Q0E7D:           DB  00H, 00H, 00H, 00H, 00H, 00H, 00H,0FFH     ;........

0E81 000000FF                
0E85 FF808080        487     Q0E85:           DB 0FFH, 80H, 80H, 80H, 80H, 80H, 80H, 80H     ;........

0E89 80808080                
0E8D 80808080        488     Q0E8D:           DB  80H, 80H, 80H, 80H, 80H, 80H, 80H, 80H     ;........

0E91 80808080                
0E95 80808080        489     Q0E95:           DB  80H, 80H, 80H, 80H, 80H, 80H, 80H, 80H     ;........

0E99 80808080                
0E9D 80808080        490     Q0E9D:           DB  80H, 80H, 80H, 80H, 80H, 80H, 80H, 80H     ;........

0EA1 80808080                
0EA5 80808080        491     Q0EA5:           DB  80H, 80H, 80H, 80H, 80H, 80H, 80H, 80H     ;........

0EA9 80808080                
0EAD 80808080        492     Q0EAD:           DB  80H, 80H, 80H, 80H, 80H, 80H, 80H, 80H     ;........

0EB1 80808080                
0EB5 80808080        493     Q0EB5:           DB  80H, 80H, 80H, 80H, 80H, 80H, 80H, 80H     ;........

0EB9 80808080                
0EBD 80808080        494     Q0EBD:           DB  80H, 80H, 80H, 80H, 80H, 80H, 80H, 80H     ;........

0EC1 80808080                
0EC5 80808080        495     Q0EC5:           DB  80H, 80H, 80H, 80H, 80H, 80H, 80H, 80H     ;........

0EC9 80808080                
0ECD 80808080        496     Q0ECD:           DB  80H, 80H, 80H, 80H, 80H, 80H, 80H, 80H     ;........

0ED1 80808080                
0ED5 80808080        497     Q0ED5:           DB  80H, 80H, 80H, 80H, 80H, 80H, 80H, 80H     ;........

0ED9 80808080                
0EDD 80808080        498     Q0EDD:           DB  80H, 80H, 80H, 80H, 80H, 80H, 80H, 80H     ;........

0EE1 80808080                
0EE5 80808080        499     Q0EE5:           DB  80H, 80H, 80H, 80H, 80H, 80H, 80H, 80H     ;........

0EE9 80808080                
0EED 80808080        500     Q0EED:           DB  80H, 80H, 80H, 80H, 80H, 80H, 80H, 80H     ;........

0EF1 80808080                
0EF5 80808080        501     Q0EF5:           DB  80H, 80H, 80H, 80H, 80H, 80H, 80H, 80H     ;........

0EF9 80808080                
0EFD 80808080        502     Q0EFD:           DB  80H, 80H, 80H, 80H, 80H, 80H,0FFH  ;.......

0F01 8080FF                  
                     503     ;==========================================================================

0F04 7F01            504     Q0F04:             MOV   R7,#01H                      ;0F04   7F 01

0F06 12323A          505                        LCALL Q323A                        ;0F06   12 32 3A

0F09 900200          506                        MOV   DPTR,#0200H                  ;0F09   90 02 00

A51 MACRO ASSEMBLER  __________V0_0                                                       12/04/2016 21:52:57 PAGE    16

0F0C EF              507                        MOV   A,R7                         ;0F0C   EF

0F0D F0              508                        MOVX  @DPTR,A                      ;0F0D   F0

0F0E 00              509                        NOP                                ;0F0E   00

0F0F 00              510                        NOP                                ;0F0F   00

0F10 7F01            511                        MOV   R7,#01H                      ;0F10   7F 01

0F12 12323A          512                        LCALL Q323A                        ;0F12   12 32 3A

0F15 A3              513                        INC   DPTR                         ;0F15   A3

0F16 EF              514                        MOV   A,R7                         ;0F16   EF

0F17 F0              515                        MOVX  @DPTR,A                      ;0F17   F0

0F18 00              516                        NOP                                ;0F18   00

0F19 00              517                        NOP                                ;0F19   00

0F1A 7F01            518                        MOV   R7,#01H                      ;0F1A   7F 01

0F1C 12323A          519                        LCALL Q323A                        ;0F1C   12 32 3A

0F1F A3              520                        INC   DPTR                         ;0F1F   A3

0F20 EF              521                        MOV   A,R7                         ;0F20   EF

0F21 F0              522                        MOVX  @DPTR,A                      ;0F21   F0

0F22 00              523                        NOP                                ;0F22   00

0F23 00              524                        NOP                                ;0F23   00

0F24 7F01            525                        MOV   R7,#01H                      ;0F24   7F 01

0F26 12323A          526                        LCALL Q323A                        ;0F26   12 32 3A

0F29 A3              527                        INC   DPTR                         ;0F29   A3

0F2A EF              528                        MOV   A,R7                         ;0F2A   EF

0F2B F0              529                        MOVX  @DPTR,A                      ;0F2B   F0

0F2C 00              530                        NOP                                ;0F2C   00

0F2D 00              531                        NOP                                ;0F2D   00

0F2E 7F01            532                        MOV   R7,#01H                      ;0F2E   7F 01

0F30 12323A          533                        LCALL Q323A                        ;0F30   12 32 3A

0F33 A3              534                        INC   DPTR                         ;0F33   A3

0F34 EF              535                        MOV   A,R7                         ;0F34   EF

0F35 F0              536                        MOVX  @DPTR,A                      ;0F35   F0

0F36 00              537                        NOP                                ;0F36   00

0F37 00              538                        NOP                                ;0F37   00

0F38 7F01            539                        MOV   R7,#01H                      ;0F38   7F 01

0F3A 12323A          540                        LCALL Q323A                        ;0F3A   12 32 3A

0F3D A3              541                        INC   DPTR                         ;0F3D   A3

0F3E EF              542                        MOV   A,R7                         ;0F3E   EF

0F3F F0              543                        MOVX  @DPTR,A                      ;0F3F   F0

0F40 00              544                        NOP                                ;0F40   00

0F41 00              545                        NOP                                ;0F41   00

0F42 7F01            546                        MOV   R7,#01H                      ;0F42   7F 01

0F44 12323A          547                        LCALL Q323A                        ;0F44   12 32 3A

0F47 A3              548                        INC   DPTR                         ;0F47   A3

0F48 EF              549                        MOV   A,R7                         ;0F48   EF

0F49 F0              550                        MOVX  @DPTR,A                      ;0F49   F0

0F4A 00              551                        NOP                                ;0F4A   00

0F4B 00              552                        NOP                                ;0F4B   00

0F4C 7F01            553                        MOV   R7,#01H                      ;0F4C   7F 01

0F4E 12323A          554                        LCALL Q323A                        ;0F4E   12 32 3A

0F51 A3              555                        INC   DPTR                         ;0F51   A3

0F52 EF              556                        MOV   A,R7                         ;0F52   EF

0F53 F0              557                        MOVX  @DPTR,A                      ;0F53   F0

0F54 00              558                        NOP                                ;0F54   00

0F55 00              559                        NOP                                ;0F55   00

0F56 7F01            560                        MOV   R7,#01H                      ;0F56   7F 01

0F58 12323A          561                        LCALL Q323A                        ;0F58   12 32 3A

0F5B A3              562                        INC   DPTR                         ;0F5B   A3

0F5C EF              563                        MOV   A,R7                         ;0F5C   EF

0F5D F0              564                        MOVX  @DPTR,A                      ;0F5D   F0

0F5E 00              565                        NOP                                ;0F5E   00

0F5F 00              566                        NOP                                ;0F5F   00

0F60 7F01            567                        MOV   R7,#01H                      ;0F60   7F 01

0F62 12323A          568                        LCALL Q323A                        ;0F62   12 32 3A

0F65 A3              569                        INC   DPTR                         ;0F65   A3

0F66 EF              570                        MOV   A,R7                         ;0F66   EF

0F67 F0              571                        MOVX  @DPTR,A                      ;0F67   F0

0F68 00              572                        NOP                                ;0F68   00

A51 MACRO ASSEMBLER  __________V0_0                                                       12/04/2016 21:52:57 PAGE    17

0F69 00              573                        NOP                                ;0F69   00

0F6A 7F01            574                        MOV   R7,#01H                      ;0F6A   7F 01

0F6C 12323A          575                        LCALL Q323A                        ;0F6C   12 32 3A

0F6F A3              576                        INC   DPTR                         ;0F6F   A3

0F70 EF              577                        MOV   A,R7                         ;0F70   EF

0F71 F0              578                        MOVX  @DPTR,A                      ;0F71   F0

0F72 00              579                        NOP                                ;0F72   00

0F73 00              580                        NOP                                ;0F73   00

0F74 7F01            581                        MOV   R7,#01H                      ;0F74   7F 01

0F76 12323A          582                        LCALL Q323A                        ;0F76   12 32 3A

0F79 A3              583                        INC   DPTR                         ;0F79   A3

0F7A EF              584                        MOV   A,R7                         ;0F7A   EF

0F7B F0              585                        MOVX  @DPTR,A                      ;0F7B   F0

0F7C 00              586                        NOP                                ;0F7C   00

0F7D 00              587                        NOP                                ;0F7D   00

0F7E 7F01            588                        MOV   R7,#01H                      ;0F7E   7F 01

0F80 12323A          589                        LCALL Q323A                        ;0F80   12 32 3A

0F83 A3              590                        INC   DPTR                         ;0F83   A3

0F84 EF              591                        MOV   A,R7                         ;0F84   EF

0F85 F0              592                        MOVX  @DPTR,A                      ;0F85   F0

0F86 00              593                        NOP                                ;0F86   00

0F87 00              594                        NOP                                ;0F87   00

0F88 7F01            595                        MOV   R7,#01H                      ;0F88   7F 01

0F8A 12323A          596                        LCALL Q323A                        ;0F8A   12 32 3A

0F8D A3              597                        INC   DPTR                         ;0F8D   A3

0F8E EF              598                        MOV   A,R7                         ;0F8E   EF

0F8F F0              599                        MOVX  @DPTR,A                      ;0F8F   F0

0F90 00              600                        NOP                                ;0F90   00

0F91 00              601                        NOP                                ;0F91   00

0F92 7F01            602                        MOV   R7,#01H                      ;0F92   7F 01

0F94 12323A          603                        LCALL Q323A                        ;0F94   12 32 3A

0F97 A3              604                        INC   DPTR                         ;0F97   A3

0F98 EF              605                        MOV   A,R7                         ;0F98   EF

0F99 F0              606                        MOVX  @DPTR,A                      ;0F99   F0

0F9A 00              607                        NOP                                ;0F9A   00

0F9B 00              608                        NOP                                ;0F9B   00

0F9C 7F01            609                        MOV   R7,#01H                      ;0F9C   7F 01

0F9E 12323A          610                        LCALL Q323A                        ;0F9E   12 32 3A

0FA1 A3              611                        INC   DPTR                         ;0FA1   A3

0FA2 EF              612                        MOV   A,R7                         ;0FA2   EF

0FA3 F0              613                        MOVX  @DPTR,A                      ;0FA3   F0

0FA4 00              614                        NOP                                ;0FA4   00

0FA5 00              615                        NOP                                ;0FA5   00

0FA6 7F01            616                        MOV   R7,#01H                      ;0FA6   7F 01

0FA8 12323A          617                        LCALL Q323A                        ;0FA8   12 32 3A

0FAB A3              618                        INC   DPTR                         ;0FAB   A3

0FAC EF              619                        MOV   A,R7                         ;0FAC   EF

0FAD F0              620                        MOVX  @DPTR,A                      ;0FAD   F0

0FAE 00              621                        NOP                                ;0FAE   00

0FAF 00              622                        NOP                                ;0FAF   00

0FB0 7F01            623                        MOV   R7,#01H                      ;0FB0   7F 01

0FB2 12323A          624                        LCALL Q323A                        ;0FB2   12 32 3A

0FB5 A3              625                        INC   DPTR                         ;0FB5   A3

0FB6 EF              626                        MOV   A,R7                         ;0FB6   EF

0FB7 F0              627                        MOVX  @DPTR,A                      ;0FB7   F0

0FB8 00              628                        NOP                                ;0FB8   00

0FB9 00              629                        NOP                                ;0FB9   00

0FBA 7F01            630                        MOV   R7,#01H                      ;0FBA   7F 01

0FBC 12323A          631                        LCALL Q323A                        ;0FBC   12 32 3A

0FBF A3              632                        INC   DPTR                         ;0FBF   A3

0FC0 EF              633                        MOV   A,R7                         ;0FC0   EF

0FC1 F0              634                        MOVX  @DPTR,A                      ;0FC1   F0

0FC2 00              635                        NOP                                ;0FC2   00

0FC3 00              636                        NOP                                ;0FC3   00

0FC4 7F01            637                        MOV   R7,#01H                      ;0FC4   7F 01

0FC6 12323A          638                        LCALL Q323A                        ;0FC6   12 32 3A

A51 MACRO ASSEMBLER  __________V0_0                                                       12/04/2016 21:52:57 PAGE    18

0FC9 A3              639                        INC   DPTR                         ;0FC9   A3

0FCA EF              640                        MOV   A,R7                         ;0FCA   EF

0FCB F0              641                        MOVX  @DPTR,A                      ;0FCB   F0

0FCC 00              642                        NOP                                ;0FCC   00

0FCD 00              643                        NOP                                ;0FCD   00

0FCE 7F01            644                        MOV   R7,#01H                      ;0FCE   7F 01

0FD0 12323A          645                        LCALL Q323A                        ;0FD0   12 32 3A

0FD3 A3              646                        INC   DPTR                         ;0FD3   A3

0FD4 EF              647                        MOV   A,R7                         ;0FD4   EF

0FD5 F0              648                        MOVX  @DPTR,A                      ;0FD5   F0

0FD6 00              649                        NOP                                ;0FD6   00

0FD7 00              650                        NOP                                ;0FD7   00

0FD8 7F01            651                        MOV   R7,#01H                      ;0FD8   7F 01

0FDA 12323A          652                        LCALL Q323A                        ;0FDA   12 32 3A

0FDD A3              653                        INC   DPTR                         ;0FDD   A3

0FDE EF              654                        MOV   A,R7                         ;0FDE   EF

0FDF F0              655                        MOVX  @DPTR,A                      ;0FDF   F0

0FE0 00              656                        NOP                                ;0FE0   00

0FE1 00              657                        NOP                                ;0FE1   00

0FE2 7F01            658                        MOV   R7,#01H                      ;0FE2   7F 01

0FE4 12323A          659                        LCALL Q323A                        ;0FE4   12 32 3A

0FE7 A3              660                        INC   DPTR                         ;0FE7   A3

0FE8 EF              661                        MOV   A,R7                         ;0FE8   EF

0FE9 F0              662                        MOVX  @DPTR,A                      ;0FE9   F0

0FEA 00              663                        NOP                                ;0FEA   00

0FEB 00              664                        NOP                                ;0FEB   00

0FEC 7F01            665                        MOV   R7,#01H                      ;0FEC   7F 01

0FEE 12323A          666                        LCALL Q323A                        ;0FEE   12 32 3A

0FF1 A3              667                        INC   DPTR                         ;0FF1   A3

0FF2 EF              668                        MOV   A,R7                         ;0FF2   EF

0FF3 F0              669                        MOVX  @DPTR,A                      ;0FF3   F0

0FF4 00              670                        NOP                                ;0FF4   00

0FF5 00              671                        NOP                                ;0FF5   00

0FF6 7F01            672                        MOV   R7,#01H                      ;0FF6   7F 01

0FF8 12323A          673                        LCALL Q323A                        ;0FF8   12 32 3A

0FFB A3              674                        INC   DPTR                         ;0FFB   A3

0FFC EF              675                        MOV   A,R7                         ;0FFC   EF

0FFD F0              676                        MOVX  @DPTR,A                      ;0FFD   F0

0FFE 00              677                        NOP                                ;0FFE   00

0FFF 00              678                        NOP                                ;0FFF   00

1000 7F01            679                        MOV   R7,#01H                      ;1000   7F 01

1002 12323A          680                        LCALL Q323A                        ;1002   12 32 3A

1005 A3              681                        INC   DPTR                         ;1005   A3

1006 EF              682                        MOV   A,R7                         ;1006   EF

1007 F0              683                        MOVX  @DPTR,A                      ;1007   F0

1008 00              684                        NOP                                ;1008   00

1009 00              685                        NOP                                ;1009   00

100A 7F01            686                        MOV   R7,#01H                      ;100A   7F 01

100C 12323A          687                        LCALL Q323A                        ;100C   12 32 3A

100F A3              688                        INC   DPTR                         ;100F   A3

1010 EF              689                        MOV   A,R7                         ;1010   EF

1011 F0              690                        MOVX  @DPTR,A                      ;1011   F0

1012 00              691                        NOP                                ;1012   00

1013 00              692                        NOP                                ;1013   00

1014 7F01            693                        MOV   R7,#01H                      ;1014   7F 01

1016 12323A          694                        LCALL Q323A                        ;1016   12 32 3A

1019 A3              695                        INC   DPTR                         ;1019   A3

101A EF              696                        MOV   A,R7                         ;101A   EF

101B F0              697                        MOVX  @DPTR,A                      ;101B   F0

101C 00              698                        NOP                                ;101C   00

101D 00              699                        NOP                                ;101D   00

101E 7F01            700                        MOV   R7,#01H                      ;101E   7F 01

1020 12323A          701                        LCALL Q323A                        ;1020   12 32 3A

1023 A3              702                        INC   DPTR                         ;1023   A3

1024 EF              703                        MOV   A,R7                         ;1024   EF

1025 F0              704                        MOVX  @DPTR,A                      ;1025   F0

A51 MACRO ASSEMBLER  __________V0_0                                                       12/04/2016 21:52:57 PAGE    19

1026 00              705                        NOP                                ;1026   00

1027 00              706                        NOP                                ;1027   00

1028 7F01            707                        MOV   R7,#01H                      ;1028   7F 01

102A 12323A          708                        LCALL Q323A                        ;102A   12 32 3A

102D A3              709                        INC   DPTR                         ;102D   A3

102E EF              710                        MOV   A,R7                         ;102E   EF

102F F0              711                        MOVX  @DPTR,A                      ;102F   F0

1030 00              712                        NOP                                ;1030   00

1031 00              713                        NOP                                ;1031   00

1032 7F01            714                        MOV   R7,#01H                      ;1032   7F 01

1034 12323A          715                        LCALL Q323A                        ;1034   12 32 3A

1037 A3              716                        INC   DPTR                         ;1037   A3

1038 EF              717                        MOV   A,R7                         ;1038   EF

1039 F0              718                        MOVX  @DPTR,A                      ;1039   F0

103A 00              719                        NOP                                ;103A   00

103B 00              720                        NOP                                ;103B   00

103C 7F01            721                        MOV   R7,#01H                      ;103C   7F 01

103E 12323A          722                        LCALL Q323A                        ;103E   12 32 3A

1041 A3              723                        INC   DPTR                         ;1041   A3

1042 EF              724                        MOV   A,R7                         ;1042   EF

1043 F0              725                        MOVX  @DPTR,A                      ;1043   F0

1044 00              726                        NOP                                ;1044   00

1045 00              727                        NOP                                ;1045   00

1046 7F01            728                        MOV   R7,#01H                      ;1046   7F 01

1048 12323A          729                        LCALL Q323A                        ;1048   12 32 3A

104B A3              730                        INC   DPTR                         ;104B   A3

104C EF              731                        MOV   A,R7                         ;104C   EF

104D F0              732                        MOVX  @DPTR,A                      ;104D   F0

104E 00              733                        NOP                                ;104E   00

104F 00              734                        NOP                                ;104F   00

1050 7F01            735                        MOV   R7,#01H                      ;1050   7F 01

1052 12323A          736                        LCALL Q323A                        ;1052   12 32 3A

1055 A3              737                        INC   DPTR                         ;1055   A3

1056 EF              738                        MOV   A,R7                         ;1056   EF

1057 F0              739                        MOVX  @DPTR,A                      ;1057   F0

1058 00              740                        NOP                                ;1058   00

1059 00              741                        NOP                                ;1059   00

105A 7F01            742                        MOV   R7,#01H                      ;105A   7F 01

105C 12323A          743                        LCALL Q323A                        ;105C   12 32 3A

105F A3              744                        INC   DPTR                         ;105F   A3

1060 EF              745                        MOV   A,R7                         ;1060   EF

1061 F0              746                        MOVX  @DPTR,A                      ;1061   F0

1062 00              747                        NOP                                ;1062   00

1063 00              748                        NOP                                ;1063   00

1064 7F01            749                        MOV   R7,#01H                      ;1064   7F 01

1066 12323A          750                        LCALL Q323A                        ;1066   12 32 3A

1069 A3              751                        INC   DPTR                         ;1069   A3

106A EF              752                        MOV   A,R7                         ;106A   EF

106B F0              753                        MOVX  @DPTR,A                      ;106B   F0

106C 00              754                        NOP                                ;106C   00

106D 00              755                        NOP                                ;106D   00

106E 7F01            756                        MOV   R7,#01H                      ;106E   7F 01

1070 12323A          757                        LCALL Q323A                        ;1070   12 32 3A

1073 A3              758                        INC   DPTR                         ;1073   A3

1074 EF              759                        MOV   A,R7                         ;1074   EF

1075 F0              760                        MOVX  @DPTR,A                      ;1075   F0

1076 00              761                        NOP                                ;1076   00

1077 00              762                        NOP                                ;1077   00

1078 7F01            763                        MOV   R7,#01H                      ;1078   7F 01

107A 12323A          764                        LCALL Q323A                        ;107A   12 32 3A

107D A3              765                        INC   DPTR                         ;107D   A3

107E EF              766                        MOV   A,R7                         ;107E   EF

107F F0              767                        MOVX  @DPTR,A                      ;107F   F0

1080 00              768                        NOP                                ;1080   00

1081 00              769                        NOP                                ;1081   00

1082 7F01            770                        MOV   R7,#01H                      ;1082   7F 01

A51 MACRO ASSEMBLER  __________V0_0                                                       12/04/2016 21:52:57 PAGE    20

1084 12323A          771                        LCALL Q323A                        ;1084   12 32 3A

1087 A3              772                        INC   DPTR                         ;1087   A3

1088 EF              773                        MOV   A,R7                         ;1088   EF

1089 F0              774                        MOVX  @DPTR,A                      ;1089   F0

108A 00              775                        NOP                                ;108A   00

108B 00              776                        NOP                                ;108B   00

108C 7F01            777                        MOV   R7,#01H                      ;108C   7F 01

108E 12323A          778                        LCALL Q323A                        ;108E   12 32 3A

1091 A3              779                        INC   DPTR                         ;1091   A3

1092 EF              780                        MOV   A,R7                         ;1092   EF

1093 F0              781                        MOVX  @DPTR,A                      ;1093   F0

1094 00              782                        NOP                                ;1094   00

1095 00              783                        NOP                                ;1095   00

1096 7F01            784                        MOV   R7,#01H                      ;1096   7F 01

1098 12323A          785                        LCALL Q323A                        ;1098   12 32 3A

109B A3              786                        INC   DPTR                         ;109B   A3

109C EF              787                        MOV   A,R7                         ;109C   EF

109D F0              788                        MOVX  @DPTR,A                      ;109D   F0

109E 00              789                        NOP                                ;109E   00

109F 00              790                        NOP                                ;109F   00

10A0 7F01            791                        MOV   R7,#01H                      ;10A0   7F 01

10A2 12323A          792                        LCALL Q323A                        ;10A2   12 32 3A

10A5 A3              793                        INC   DPTR                         ;10A5   A3

10A6 EF              794                        MOV   A,R7                         ;10A6   EF

10A7 F0              795                        MOVX  @DPTR,A                      ;10A7   F0

10A8 00              796                        NOP                                ;10A8   00

10A9 00              797                        NOP                                ;10A9   00

10AA 7F01            798                        MOV   R7,#01H                      ;10AA   7F 01

10AC 12323A          799                        LCALL Q323A                        ;10AC   12 32 3A

10AF A3              800                        INC   DPTR                         ;10AF   A3

10B0 EF              801                        MOV   A,R7                         ;10B0   EF

10B1 F0              802                        MOVX  @DPTR,A                      ;10B1   F0

10B2 00              803                        NOP                                ;10B2   00

10B3 00              804                        NOP                                ;10B3   00

10B4 7F01            805                        MOV   R7,#01H                      ;10B4   7F 01

10B6 12323A          806                        LCALL Q323A                        ;10B6   12 32 3A

10B9 A3              807                        INC   DPTR                         ;10B9   A3

10BA EF              808                        MOV   A,R7                         ;10BA   EF

10BB F0              809                        MOVX  @DPTR,A                      ;10BB   F0

10BC 00              810                        NOP                                ;10BC   00

10BD 00              811                        NOP                                ;10BD   00

10BE 7F01            812                        MOV   R7,#01H                      ;10BE   7F 01

10C0 12323A          813                        LCALL Q323A                        ;10C0   12 32 3A

10C3 A3              814                        INC   DPTR                         ;10C3   A3

10C4 EF              815                        MOV   A,R7                         ;10C4   EF

10C5 F0              816                        MOVX  @DPTR,A                      ;10C5   F0

10C6 00              817                        NOP                                ;10C6   00

10C7 00              818                        NOP                                ;10C7   00

10C8 7F01            819                        MOV   R7,#01H                      ;10C8   7F 01

10CA 12323A          820                        LCALL Q323A                        ;10CA   12 32 3A

10CD A3              821                        INC   DPTR                         ;10CD   A3

10CE EF              822                        MOV   A,R7                         ;10CE   EF

10CF F0              823                        MOVX  @DPTR,A                      ;10CF   F0

10D0 00              824                        NOP                                ;10D0   00

10D1 00              825                        NOP                                ;10D1   00

10D2 7F01            826                        MOV   R7,#01H                      ;10D2   7F 01

10D4 12323A          827                        LCALL Q323A                        ;10D4   12 32 3A

10D7 A3              828                        INC   DPTR                         ;10D7   A3

10D8 EF              829                        MOV   A,R7                         ;10D8   EF

10D9 F0              830                        MOVX  @DPTR,A                      ;10D9   F0

10DA 00              831                        NOP                                ;10DA   00

10DB 00              832                        NOP                                ;10DB   00

10DC 7F01            833                        MOV   R7,#01H                      ;10DC   7F 01

10DE 12323A          834                        LCALL Q323A                        ;10DE   12 32 3A

10E1 A3              835                        INC   DPTR                         ;10E1   A3

10E2 EF              836                        MOV   A,R7                         ;10E2   EF

A51 MACRO ASSEMBLER  __________V0_0                                                       12/04/2016 21:52:57 PAGE    21

10E3 F0              837                        MOVX  @DPTR,A                      ;10E3   F0

10E4 00              838                        NOP                                ;10E4   00

10E5 00              839                        NOP                                ;10E5   00

10E6 7F01            840                        MOV   R7,#01H                      ;10E6   7F 01

10E8 12323A          841                        LCALL Q323A                        ;10E8   12 32 3A

10EB A3              842                        INC   DPTR                         ;10EB   A3

10EC EF              843                        MOV   A,R7                         ;10EC   EF

10ED F0              844                        MOVX  @DPTR,A                      ;10ED   F0

10EE 00              845                        NOP                                ;10EE   00

10EF 00              846                        NOP                                ;10EF   00

10F0 7F01            847                        MOV   R7,#01H                      ;10F0   7F 01

10F2 12323A          848                        LCALL Q323A                        ;10F2   12 32 3A

10F5 A3              849                        INC   DPTR                         ;10F5   A3

10F6 EF              850                        MOV   A,R7                         ;10F6   EF

10F7 F0              851                        MOVX  @DPTR,A                      ;10F7   F0

10F8 00              852                        NOP                                ;10F8   00

10F9 00              853                        NOP                                ;10F9   00

10FA 7F01            854                        MOV   R7,#01H                      ;10FA   7F 01

10FC 12323A          855                        LCALL Q323A                        ;10FC   12 32 3A

10FF A3              856                        INC   DPTR                         ;10FF   A3

1100 EF              857                        MOV   A,R7                         ;1100   EF

1101 F0              858                        MOVX  @DPTR,A                      ;1101   F0

1102 00              859                        NOP                                ;1102   00

1103 00              860                        NOP                                ;1103   00

1104 7F01            861                        MOV   R7,#01H                      ;1104   7F 01

1106 12323A          862                        LCALL Q323A                        ;1106   12 32 3A

1109 A3              863                        INC   DPTR                         ;1109   A3

110A EF              864                        MOV   A,R7                         ;110A   EF

110B F0              865                        MOVX  @DPTR,A                      ;110B   F0

110C 00              866                        NOP                                ;110C   00

110D 00              867                        NOP                                ;110D   00

110E 7F01            868                        MOV   R7,#01H                      ;110E   7F 01

1110 12323A          869                        LCALL Q323A                        ;1110   12 32 3A

1113 A3              870                        INC   DPTR                         ;1113   A3

1114 EF              871                        MOV   A,R7                         ;1114   EF

1115 F0              872                        MOVX  @DPTR,A                      ;1115   F0

1116 00              873                        NOP                                ;1116   00

1117 00              874                        NOP                                ;1117   00

1118 7F01            875                        MOV   R7,#01H                      ;1118   7F 01

111A 12323A          876                        LCALL Q323A                        ;111A   12 32 3A

111D A3              877                        INC   DPTR                         ;111D   A3

111E EF              878                        MOV   A,R7                         ;111E   EF

111F F0              879                        MOVX  @DPTR,A                      ;111F   F0

1120 00              880                        NOP                                ;1120   00

1121 00              881                        NOP                                ;1121   00

1122 7F01            882                        MOV   R7,#01H                      ;1122   7F 01

1124 12323A          883                        LCALL Q323A                        ;1124   12 32 3A

1127 A3              884                        INC   DPTR                         ;1127   A3

1128 EF              885                        MOV   A,R7                         ;1128   EF

1129 F0              886                        MOVX  @DPTR,A                      ;1129   F0

112A 00              887                        NOP                                ;112A   00

112B 00              888                        NOP                                ;112B   00

112C 7F01            889                        MOV   R7,#01H                      ;112C   7F 01

112E 12323A          890                        LCALL Q323A                        ;112E   12 32 3A

1131 A3              891                        INC   DPTR                         ;1131   A3

1132 EF              892                        MOV   A,R7                         ;1132   EF

1133 F0              893                        MOVX  @DPTR,A                      ;1133   F0

1134 00              894                        NOP                                ;1134   00

1135 00              895                        NOP                                ;1135   00

1136 7F01            896                        MOV   R7,#01H                      ;1136   7F 01

1138 12323A          897                        LCALL Q323A                        ;1138   12 32 3A

113B A3              898                        INC   DPTR                         ;113B   A3

113C EF              899                        MOV   A,R7                         ;113C   EF

113D F0              900                        MOVX  @DPTR,A                      ;113D   F0

113E 00              901                        NOP                                ;113E   00

113F 00              902                        NOP                                ;113F   00

A51 MACRO ASSEMBLER  __________V0_0                                                       12/04/2016 21:52:57 PAGE    22

1140 7F01            903                        MOV   R7,#01H                      ;1140   7F 01

1142 12323A          904                        LCALL Q323A                        ;1142   12 32 3A

1145 A3              905                        INC   DPTR                         ;1145   A3

1146 EF              906                        MOV   A,R7                         ;1146   EF

1147 F0              907                        MOVX  @DPTR,A                      ;1147   F0

1148 00              908                        NOP                                ;1148   00

1149 00              909                        NOP                                ;1149   00

114A 7F01            910                        MOV   R7,#01H                      ;114A   7F 01

114C 12323A          911                        LCALL Q323A                        ;114C   12 32 3A

114F A3              912                        INC   DPTR                         ;114F   A3

1150 EF              913                        MOV   A,R7                         ;1150   EF

1151 F0              914                        MOVX  @DPTR,A                      ;1151   F0

1152 00              915                        NOP                                ;1152   00

1153 00              916                        NOP                                ;1153   00

1154 7F01            917                        MOV   R7,#01H                      ;1154   7F 01

1156 12323A          918                        LCALL Q323A                        ;1156   12 32 3A

1159 A3              919                        INC   DPTR                         ;1159   A3

115A EF              920                        MOV   A,R7                         ;115A   EF

115B F0              921                        MOVX  @DPTR,A                      ;115B   F0

115C 00              922                        NOP                                ;115C   00

115D 00              923                        NOP                                ;115D   00

115E 7F01            924                        MOV   R7,#01H                      ;115E   7F 01

1160 12323A          925                        LCALL Q323A                        ;1160   12 32 3A

1163 A3              926                        INC   DPTR                         ;1163   A3

1164 EF              927                        MOV   A,R7                         ;1164   EF

1165 F0              928                        MOVX  @DPTR,A                      ;1165   F0

1166 00              929                        NOP                                ;1166   00

1167 00              930                        NOP                                ;1167   00

1168 7F01            931                        MOV   R7,#01H                      ;1168   7F 01

116A 12323A          932                        LCALL Q323A                        ;116A   12 32 3A

116D A3              933                        INC   DPTR                         ;116D   A3

116E EF              934                        MOV   A,R7                         ;116E   EF

116F F0              935                        MOVX  @DPTR,A                      ;116F   F0

1170 00              936                        NOP                                ;1170   00

1171 00              937                        NOP                                ;1171   00

1172 7F01            938                        MOV   R7,#01H                      ;1172   7F 01

1174 12323A          939                        LCALL Q323A                        ;1174   12 32 3A

1177 A3              940                        INC   DPTR                         ;1177   A3

1178 EF              941                        MOV   A,R7                         ;1178   EF

1179 F0              942                        MOVX  @DPTR,A                      ;1179   F0

117A 00              943                        NOP                                ;117A   00

117B 00              944                        NOP                                ;117B   00

117C 7F01            945                        MOV   R7,#01H                      ;117C   7F 01

117E 12323A          946                        LCALL Q323A                        ;117E   12 32 3A

1181 A3              947                        INC   DPTR                         ;1181   A3

1182 EF              948                        MOV   A,R7                         ;1182   EF

1183 F0              949                        MOVX  @DPTR,A                      ;1183   F0

1184 00              950                        NOP                                ;1184   00

1185 00              951                        NOP                                ;1185   00

1186 7F01            952                        MOV   R7,#01H                      ;1186   7F 01

1188 12323A          953                        LCALL Q323A                        ;1188   12 32 3A

118B A3              954                        INC   DPTR                         ;118B   A3

118C EF              955                        MOV   A,R7                         ;118C   EF

118D F0              956                        MOVX  @DPTR,A                      ;118D   F0

118E 00              957                        NOP                                ;118E   00

118F 00              958                        NOP                                ;118F   00

1190 7F01            959                        MOV   R7,#01H                      ;1190   7F 01

1192 12323A          960                        LCALL Q323A                        ;1192   12 32 3A

1195 A3              961                        INC   DPTR                         ;1195   A3

1196 EF              962                        MOV   A,R7                         ;1196   EF

1197 F0              963                        MOVX  @DPTR,A                      ;1197   F0

1198 00              964                        NOP                                ;1198   00

1199 00              965                        NOP                                ;1199   00

119A 7F01            966                        MOV   R7,#01H                      ;119A   7F 01

119C 12323A          967                        LCALL Q323A                        ;119C   12 32 3A

119F A3              968                        INC   DPTR                         ;119F   A3

A51 MACRO ASSEMBLER  __________V0_0                                                       12/04/2016 21:52:57 PAGE    23

11A0 EF              969                        MOV   A,R7                         ;11A0   EF

11A1 F0              970                        MOVX  @DPTR,A                      ;11A1   F0

11A2 00              971                        NOP                                ;11A2   00

11A3 00              972                        NOP                                ;11A3   00

11A4 7F01            973                        MOV   R7,#01H                      ;11A4   7F 01

11A6 12323A          974                        LCALL Q323A                        ;11A6   12 32 3A

11A9 A3              975                        INC   DPTR                         ;11A9   A3

11AA EF              976                        MOV   A,R7                         ;11AA   EF

11AB F0              977                        MOVX  @DPTR,A                      ;11AB   F0

11AC 00              978                        NOP                                ;11AC   00

11AD 00              979                        NOP                                ;11AD   00

11AE 7F01            980                        MOV   R7,#01H                      ;11AE   7F 01

11B0 12323A          981                        LCALL Q323A                        ;11B0   12 32 3A

11B3 A3              982                        INC   DPTR                         ;11B3   A3

11B4 EF              983                        MOV   A,R7                         ;11B4   EF

11B5 F0              984                        MOVX  @DPTR,A                      ;11B5   F0

11B6 00              985                        NOP                                ;11B6   00

11B7 00              986                        NOP                                ;11B7   00

11B8 7F01            987                        MOV   R7,#01H                      ;11B8   7F 01

11BA 12323A          988                        LCALL Q323A                        ;11BA   12 32 3A

11BD A3              989                        INC   DPTR                         ;11BD   A3

11BE EF              990                        MOV   A,R7                         ;11BE   EF

11BF F0              991                        MOVX  @DPTR,A                      ;11BF   F0

11C0 00              992                        NOP                                ;11C0   00

11C1 00              993                        NOP                                ;11C1   00

11C2 7F01            994                        MOV   R7,#01H                      ;11C2   7F 01

11C4 12323A          995                        LCALL Q323A                        ;11C4   12 32 3A

11C7 A3              996                        INC   DPTR                         ;11C7   A3

11C8 EF              997                        MOV   A,R7                         ;11C8   EF

11C9 F0              998                        MOVX  @DPTR,A                      ;11C9   F0

11CA 00              999                        NOP                                ;11CA   00

11CB 00             1000                        NOP                                ;11CB   00

11CC 7F01           1001                        MOV   R7,#01H                      ;11CC   7F 01

11CE 12323A         1002                        LCALL Q323A                        ;11CE   12 32 3A

11D1 A3             1003                        INC   DPTR                         ;11D1   A3

11D2 EF             1004                        MOV   A,R7                         ;11D2   EF

11D3 F0             1005                        MOVX  @DPTR,A                      ;11D3   F0

11D4 00             1006                        NOP                                ;11D4   00

11D5 00             1007                        NOP                                ;11D5   00

11D6 7F01           1008                        MOV   R7,#01H                      ;11D6   7F 01

11D8 12323A         1009                        LCALL Q323A                        ;11D8   12 32 3A

11DB A3             1010                        INC   DPTR                         ;11DB   A3

11DC EF             1011                        MOV   A,R7                         ;11DC   EF

11DD F0             1012                        MOVX  @DPTR,A                      ;11DD   F0

11DE 00             1013                        NOP                                ;11DE   00

11DF 00             1014                        NOP                                ;11DF   00

11E0 7F01           1015                        MOV   R7,#01H                      ;11E0   7F 01

11E2 12323A         1016                        LCALL Q323A                        ;11E2   12 32 3A

11E5 A3             1017                        INC   DPTR                         ;11E5   A3

11E6 EF             1018                        MOV   A,R7                         ;11E6   EF

11E7 F0             1019                        MOVX  @DPTR,A                      ;11E7   F0

11E8 00             1020                        NOP                                ;11E8   00

11E9 00             1021                        NOP                                ;11E9   00

11EA 7F01           1022                        MOV   R7,#01H                      ;11EA   7F 01

11EC 12323A         1023                        LCALL Q323A                        ;11EC   12 32 3A

11EF A3             1024                        INC   DPTR                         ;11EF   A3

11F0 EF             1025                        MOV   A,R7                         ;11F0   EF

11F1 F0             1026                        MOVX  @DPTR,A                      ;11F1   F0

11F2 00             1027                        NOP                                ;11F2   00

11F3 00             1028                        NOP                                ;11F3   00

11F4 7F01           1029                        MOV   R7,#01H                      ;11F4   7F 01

11F6 12323A         1030                        LCALL Q323A                        ;11F6   12 32 3A

11F9 A3             1031                        INC   DPTR                         ;11F9   A3

11FA EF             1032                        MOV   A,R7                         ;11FA   EF

11FB F0             1033                        MOVX  @DPTR,A                      ;11FB   F0

11FC 00             1034                        NOP                                ;11FC   00

A51 MACRO ASSEMBLER  __________V0_0                                                       12/04/2016 21:52:57 PAGE    24

11FD 00             1035                        NOP                                ;11FD   00

11FE 7F01           1036                        MOV   R7,#01H                      ;11FE   7F 01

1200 12323A         1037                        LCALL Q323A                        ;1200   12 32 3A

1203 A3             1038                        INC   DPTR                         ;1203   A3

1204 EF             1039                        MOV   A,R7                         ;1204   EF

1205 F0             1040                        MOVX  @DPTR,A                      ;1205   F0

1206 00             1041                        NOP                                ;1206   00

1207 00             1042                        NOP                                ;1207   00

1208 7F01           1043                        MOV   R7,#01H                      ;1208   7F 01

120A 12323A         1044                        LCALL Q323A                        ;120A   12 32 3A

120D A3             1045                        INC   DPTR                         ;120D   A3

120E EF             1046                        MOV   A,R7                         ;120E   EF

120F F0             1047                        MOVX  @DPTR,A                      ;120F   F0

1210 00             1048                        NOP                                ;1210   00

1211 00             1049                        NOP                                ;1211   00

1212 7F01           1050                        MOV   R7,#01H                      ;1212   7F 01

1214 12323A         1051                        LCALL Q323A                        ;1214   12 32 3A

1217 A3             1052                        INC   DPTR                         ;1217   A3

1218 EF             1053                        MOV   A,R7                         ;1218   EF

1219 F0             1054                        MOVX  @DPTR,A                      ;1219   F0

121A 00             1055                        NOP                                ;121A   00

121B 00             1056                        NOP                                ;121B   00

121C 7F01           1057                        MOV   R7,#01H                      ;121C   7F 01

121E 12323A         1058                        LCALL Q323A                        ;121E   12 32 3A

1221 A3             1059                        INC   DPTR                         ;1221   A3

1222 EF             1060                        MOV   A,R7                         ;1222   EF

1223 F0             1061                        MOVX  @DPTR,A                      ;1223   F0

1224 00             1062                        NOP                                ;1224   00

1225 00             1063                        NOP                                ;1225   00

1226 7F01           1064                        MOV   R7,#01H                      ;1226   7F 01

1228 12323A         1065                        LCALL Q323A                        ;1228   12 32 3A

122B A3             1066                        INC   DPTR                         ;122B   A3

122C EF             1067                        MOV   A,R7                         ;122C   EF

122D F0             1068                        MOVX  @DPTR,A                      ;122D   F0

122E 00             1069                        NOP                                ;122E   00

122F 00             1070                        NOP                                ;122F   00

1230 7F01           1071                        MOV   R7,#01H                      ;1230   7F 01

1232 12323A         1072                        LCALL Q323A                        ;1232   12 32 3A

1235 A3             1073                        INC   DPTR                         ;1235   A3

1236 EF             1074                        MOV   A,R7                         ;1236   EF

1237 F0             1075                        MOVX  @DPTR,A                      ;1237   F0

1238 00             1076                        NOP                                ;1238   00

1239 00             1077                        NOP                                ;1239   00

123A 7F01           1078                        MOV   R7,#01H                      ;123A   7F 01

123C 12323A         1079                        LCALL Q323A                        ;123C   12 32 3A

123F A3             1080                        INC   DPTR                         ;123F   A3

1240 EF             1081                        MOV   A,R7                         ;1240   EF

1241 F0             1082                        MOVX  @DPTR,A                      ;1241   F0

1242 00             1083                        NOP                                ;1242   00

1243 00             1084                        NOP                                ;1243   00

1244 7F01           1085                        MOV   R7,#01H                      ;1244   7F 01

1246 12323A         1086                        LCALL Q323A                        ;1246   12 32 3A

1249 A3             1087                        INC   DPTR                         ;1249   A3

124A EF             1088                        MOV   A,R7                         ;124A   EF

124B F0             1089                        MOVX  @DPTR,A                      ;124B   F0

124C 00             1090                        NOP                                ;124C   00

124D 00             1091                        NOP                                ;124D   00

124E 7F01           1092                        MOV   R7,#01H                      ;124E   7F 01

1250 12323A         1093                        LCALL Q323A                        ;1250   12 32 3A

1253 A3             1094                        INC   DPTR                         ;1253   A3

1254 EF             1095                        MOV   A,R7                         ;1254   EF

1255 F0             1096                        MOVX  @DPTR,A                      ;1255   F0

1256 00             1097                        NOP                                ;1256   00

1257 00             1098                        NOP                                ;1257   00

1258 7F01           1099                        MOV   R7,#01H                      ;1258   7F 01

125A 12323A         1100                        LCALL Q323A                        ;125A   12 32 3A

A51 MACRO ASSEMBLER  __________V0_0                                                       12/04/2016 21:52:57 PAGE    25

125D A3             1101                        INC   DPTR                         ;125D   A3

125E EF             1102                        MOV   A,R7                         ;125E   EF

125F F0             1103                        MOVX  @DPTR,A                      ;125F   F0

1260 00             1104                        NOP                                ;1260   00

1261 00             1105                        NOP                                ;1261   00

1262 7F01           1106                        MOV   R7,#01H                      ;1262   7F 01

1264 12323A         1107                        LCALL Q323A                        ;1264   12 32 3A

1267 A3             1108                        INC   DPTR                         ;1267   A3

1268 EF             1109                        MOV   A,R7                         ;1268   EF

1269 F0             1110                        MOVX  @DPTR,A                      ;1269   F0

126A 00             1111                        NOP                                ;126A   00

126B 00             1112                        NOP                                ;126B   00

126C 7F01           1113                        MOV   R7,#01H                      ;126C   7F 01

126E 12323A         1114                        LCALL Q323A                        ;126E   12 32 3A

1271 A3             1115                        INC   DPTR                         ;1271   A3

1272 EF             1116                        MOV   A,R7                         ;1272   EF

1273 F0             1117                        MOVX  @DPTR,A                      ;1273   F0

1274 00             1118                        NOP                                ;1274   00

1275 00             1119                        NOP                                ;1275   00

1276 7F01           1120                        MOV   R7,#01H                      ;1276   7F 01

1278 12323A         1121                        LCALL Q323A                        ;1278   12 32 3A

127B A3             1122                        INC   DPTR                         ;127B   A3

127C EF             1123                        MOV   A,R7                         ;127C   EF

127D F0             1124                        MOVX  @DPTR,A                      ;127D   F0

127E 00             1125                        NOP                                ;127E   00

127F 00             1126                        NOP                                ;127F   00

1280 7F01           1127                        MOV   R7,#01H                      ;1280   7F 01

1282 12323A         1128                        LCALL Q323A                        ;1282   12 32 3A

1285 A3             1129                        INC   DPTR                         ;1285   A3

1286 EF             1130                        MOV   A,R7                         ;1286   EF

1287 F0             1131                        MOVX  @DPTR,A                      ;1287   F0

1288 00             1132                        NOP                                ;1288   00

1289 00             1133                        NOP                                ;1289   00

128A 7F01           1134                        MOV   R7,#01H                      ;128A   7F 01

128C 12323A         1135                        LCALL Q323A                        ;128C   12 32 3A

128F A3             1136                        INC   DPTR                         ;128F   A3

1290 EF             1137                        MOV   A,R7                         ;1290   EF

1291 F0             1138                        MOVX  @DPTR,A                      ;1291   F0

1292 00             1139                        NOP                                ;1292   00

1293 00             1140                        NOP                                ;1293   00

1294 7F01           1141                        MOV   R7,#01H                      ;1294   7F 01

1296 12323A         1142                        LCALL Q323A                        ;1296   12 32 3A

1299 A3             1143                        INC   DPTR                         ;1299   A3

129A EF             1144                        MOV   A,R7                         ;129A   EF

129B F0             1145                        MOVX  @DPTR,A                      ;129B   F0

129C 00             1146                        NOP                                ;129C   00

129D 00             1147                        NOP                                ;129D   00

129E 7F01           1148                        MOV   R7,#01H                      ;129E   7F 01

12A0 12323A         1149                        LCALL Q323A                        ;12A0   12 32 3A

12A3 A3             1150                        INC   DPTR                         ;12A3   A3

12A4 EF             1151                        MOV   A,R7                         ;12A4   EF

12A5 F0             1152                        MOVX  @DPTR,A                      ;12A5   F0

12A6 00             1153                        NOP                                ;12A6   00

12A7 00             1154                        NOP                                ;12A7   00

12A8 7F01           1155                        MOV   R7,#01H                      ;12A8   7F 01

12AA 12323A         1156                        LCALL Q323A                        ;12AA   12 32 3A

12AD A3             1157                        INC   DPTR                         ;12AD   A3

12AE EF             1158                        MOV   A,R7                         ;12AE   EF

12AF F0             1159                        MOVX  @DPTR,A                      ;12AF   F0

12B0 00             1160                        NOP                                ;12B0   00

12B1 00             1161                        NOP                                ;12B1   00

12B2 7F01           1162                        MOV   R7,#01H                      ;12B2   7F 01

12B4 12323A         1163                        LCALL Q323A                        ;12B4   12 32 3A

12B7 A3             1164                        INC   DPTR                         ;12B7   A3

12B8 EF             1165                        MOV   A,R7                         ;12B8   EF

12B9 F0             1166                        MOVX  @DPTR,A                      ;12B9   F0

A51 MACRO ASSEMBLER  __________V0_0                                                       12/04/2016 21:52:57 PAGE    26

12BA 00             1167                        NOP                                ;12BA   00

12BB 00             1168                        NOP                                ;12BB   00

12BC 7F01           1169                        MOV   R7,#01H                      ;12BC   7F 01

12BE 12323A         1170                        LCALL Q323A                        ;12BE   12 32 3A

12C1 A3             1171                        INC   DPTR                         ;12C1   A3

12C2 EF             1172                        MOV   A,R7                         ;12C2   EF

12C3 F0             1173                        MOVX  @DPTR,A                      ;12C3   F0

12C4 00             1174                        NOP                                ;12C4   00

12C5 00             1175                        NOP                                ;12C5   00

12C6 7F01           1176                        MOV   R7,#01H                      ;12C6   7F 01

12C8 12323A         1177                        LCALL Q323A                        ;12C8   12 32 3A

12CB A3             1178                        INC   DPTR                         ;12CB   A3

12CC EF             1179                        MOV   A,R7                         ;12CC   EF

12CD F0             1180                        MOVX  @DPTR,A                      ;12CD   F0

12CE 00             1181                        NOP                                ;12CE   00

12CF 00             1182                        NOP                                ;12CF   00

12D0 7F01           1183                        MOV   R7,#01H                      ;12D0   7F 01

12D2 12323A         1184                        LCALL Q323A                        ;12D2   12 32 3A

12D5 A3             1185                        INC   DPTR                         ;12D5   A3

12D6 EF             1186                        MOV   A,R7                         ;12D6   EF

12D7 F0             1187                        MOVX  @DPTR,A                      ;12D7   F0

12D8 00             1188                        NOP                                ;12D8   00

12D9 00             1189                        NOP                                ;12D9   00

12DA 7F01           1190                        MOV   R7,#01H                      ;12DA   7F 01

12DC 12323A         1191                        LCALL Q323A                        ;12DC   12 32 3A

12DF A3             1192                        INC   DPTR                         ;12DF   A3

12E0 EF             1193                        MOV   A,R7                         ;12E0   EF

12E1 F0             1194                        MOVX  @DPTR,A                      ;12E1   F0

12E2 00             1195                        NOP                                ;12E2   00

12E3 00             1196                        NOP                                ;12E3   00

12E4 7F01           1197                        MOV   R7,#01H                      ;12E4   7F 01

12E6 12323A         1198                        LCALL Q323A                        ;12E6   12 32 3A

12E9 A3             1199                        INC   DPTR                         ;12E9   A3

12EA EF             1200                        MOV   A,R7                         ;12EA   EF

12EB F0             1201                        MOVX  @DPTR,A                      ;12EB   F0

12EC 00             1202                        NOP                                ;12EC   00

12ED 00             1203                        NOP                                ;12ED   00

12EE 7F01           1204                        MOV   R7,#01H                      ;12EE   7F 01

12F0 12323A         1205                        LCALL Q323A                        ;12F0   12 32 3A

12F3 A3             1206                        INC   DPTR                         ;12F3   A3

12F4 EF             1207                        MOV   A,R7                         ;12F4   EF

12F5 F0             1208                        MOVX  @DPTR,A                      ;12F5   F0

12F6 00             1209                        NOP                                ;12F6   00

12F7 00             1210                        NOP                                ;12F7   00

12F8 7F01           1211                        MOV   R7,#01H                      ;12F8   7F 01

12FA 12323A         1212                        LCALL Q323A                        ;12FA   12 32 3A

12FD A3             1213                        INC   DPTR                         ;12FD   A3

12FE EF             1214                        MOV   A,R7                         ;12FE   EF

12FF F0             1215                        MOVX  @DPTR,A                      ;12FF   F0

1300 00             1216                        NOP                                ;1300   00

1301 00             1217                        NOP                                ;1301   00

1302 7F01           1218                        MOV   R7,#01H                      ;1302   7F 01

1304 12323A         1219                        LCALL Q323A                        ;1304   12 32 3A

1307 A3             1220                        INC   DPTR                         ;1307   A3

1308 EF             1221                        MOV   A,R7                         ;1308   EF

1309 F0             1222                        MOVX  @DPTR,A                      ;1309   F0

130A 00             1223                        NOP                                ;130A   00

130B 00             1224                        NOP                                ;130B   00

130C 7F01           1225                        MOV   R7,#01H                      ;130C   7F 01

130E 12323A         1226                        LCALL Q323A                        ;130E   12 32 3A

1311 A3             1227                        INC   DPTR                         ;1311   A3

1312 EF             1228                        MOV   A,R7                         ;1312   EF

1313 F0             1229                        MOVX  @DPTR,A                      ;1313   F0

1314 00             1230                        NOP                                ;1314   00

1315 00             1231                        NOP                                ;1315   00

1316 7F01           1232                        MOV   R7,#01H                      ;1316   7F 01

A51 MACRO ASSEMBLER  __________V0_0                                                       12/04/2016 21:52:57 PAGE    27

1318 12323A         1233                        LCALL Q323A                        ;1318   12 32 3A

131B A3             1234                        INC   DPTR                         ;131B   A3

131C EF             1235                        MOV   A,R7                         ;131C   EF

131D F0             1236                        MOVX  @DPTR,A                      ;131D   F0

131E 00             1237                        NOP                                ;131E   00

131F 00             1238                        NOP                                ;131F   00

1320 7F01           1239                        MOV   R7,#01H                      ;1320   7F 01

1322 12323A         1240                        LCALL Q323A                        ;1322   12 32 3A

1325 A3             1241                        INC   DPTR                         ;1325   A3

1326 EF             1242                        MOV   A,R7                         ;1326   EF

1327 F0             1243                        MOVX  @DPTR,A                      ;1327   F0

1328 00             1244                        NOP                                ;1328   00

1329 00             1245                        NOP                                ;1329   00

132A 7F01           1246                        MOV   R7,#01H                      ;132A   7F 01

132C 12323A         1247                        LCALL Q323A                        ;132C   12 32 3A

132F A3             1248                        INC   DPTR                         ;132F   A3

1330 EF             1249                        MOV   A,R7                         ;1330   EF

1331 F0             1250                        MOVX  @DPTR,A                      ;1331   F0

1332 00             1251                        NOP                                ;1332   00

1333 00             1252                        NOP                                ;1333   00

1334 7F01           1253                        MOV   R7,#01H                      ;1334   7F 01

1336 12323A         1254                        LCALL Q323A                        ;1336   12 32 3A

1339 A3             1255                        INC   DPTR                         ;1339   A3

133A EF             1256                        MOV   A,R7                         ;133A   EF

133B F0             1257                        MOVX  @DPTR,A                      ;133B   F0

133C 00             1258                        NOP                                ;133C   00

133D 00             1259                        NOP                                ;133D   00

133E 7F01           1260                        MOV   R7,#01H                      ;133E   7F 01

1340 12323A         1261                        LCALL Q323A                        ;1340   12 32 3A

1343 A3             1262                        INC   DPTR                         ;1343   A3

1344 EF             1263                        MOV   A,R7                         ;1344   EF

1345 F0             1264                        MOVX  @DPTR,A                      ;1345   F0

1346 00             1265                        NOP                                ;1346   00

1347 00             1266                        NOP                                ;1347   00

1348 7F01           1267                        MOV   R7,#01H                      ;1348   7F 01

134A 12323A         1268                        LCALL Q323A                        ;134A   12 32 3A

134D A3             1269                        INC   DPTR                         ;134D   A3

134E EF             1270                        MOV   A,R7                         ;134E   EF

134F F0             1271                        MOVX  @DPTR,A                      ;134F   F0

1350 00             1272                        NOP                                ;1350   00

1351 00             1273                        NOP                                ;1351   00

1352 7F01           1274                        MOV   R7,#01H                      ;1352   7F 01

1354 12323A         1275                        LCALL Q323A                        ;1354   12 32 3A

1357 A3             1276                        INC   DPTR                         ;1357   A3

1358 EF             1277                        MOV   A,R7                         ;1358   EF

1359 F0             1278                        MOVX  @DPTR,A                      ;1359   F0

135A 00             1279                        NOP                                ;135A   00

135B 00             1280                        NOP                                ;135B   00

135C 7F01           1281                        MOV   R7,#01H                      ;135C   7F 01

135E 12323A         1282                        LCALL Q323A                        ;135E   12 32 3A

1361 A3             1283                        INC   DPTR                         ;1361   A3

1362 EF             1284                        MOV   A,R7                         ;1362   EF

1363 F0             1285                        MOVX  @DPTR,A                      ;1363   F0

1364 00             1286                        NOP                                ;1364   00

1365 00             1287                        NOP                                ;1365   00

1366 7F01           1288                        MOV   R7,#01H                      ;1366   7F 01

1368 12323A         1289                        LCALL Q323A                        ;1368   12 32 3A

136B A3             1290                        INC   DPTR                         ;136B   A3

136C EF             1291                        MOV   A,R7                         ;136C   EF

136D F0             1292                        MOVX  @DPTR,A                      ;136D   F0

136E 00             1293                        NOP                                ;136E   00

136F 00             1294                        NOP                                ;136F   00

1370 7F01           1295                        MOV   R7,#01H                      ;1370   7F 01

1372 12323A         1296                        LCALL Q323A                        ;1372   12 32 3A

1375 A3             1297                        INC   DPTR                         ;1375   A3

1376 EF             1298                        MOV   A,R7                         ;1376   EF

A51 MACRO ASSEMBLER  __________V0_0                                                       12/04/2016 21:52:57 PAGE    28

1377 F0             1299                        MOVX  @DPTR,A                      ;1377   F0

1378 00             1300                        NOP                                ;1378   00

1379 00             1301                        NOP                                ;1379   00

137A 7F01           1302                        MOV   R7,#01H                      ;137A   7F 01

137C 12323A         1303                        LCALL Q323A                        ;137C   12 32 3A

137F A3             1304                        INC   DPTR                         ;137F   A3

1380 EF             1305                        MOV   A,R7                         ;1380   EF

1381 F0             1306                        MOVX  @DPTR,A                      ;1381   F0

1382 00             1307                        NOP                                ;1382   00

1383 00             1308                        NOP                                ;1383   00

1384 7F01           1309                        MOV   R7,#01H                      ;1384   7F 01

1386 12323A         1310                        LCALL Q323A                        ;1386   12 32 3A

1389 A3             1311                        INC   DPTR                         ;1389   A3

138A EF             1312                        MOV   A,R7                         ;138A   EF

138B F0             1313                        MOVX  @DPTR,A                      ;138B   F0

138C 00             1314                        NOP                                ;138C   00

138D 00             1315                        NOP                                ;138D   00

138E 7F01           1316                        MOV   R7,#01H                      ;138E   7F 01

1390 12323A         1317                        LCALL Q323A                        ;1390   12 32 3A

1393 A3             1318                        INC   DPTR                         ;1393   A3

1394 EF             1319                        MOV   A,R7                         ;1394   EF

1395 F0             1320                        MOVX  @DPTR,A                      ;1395   F0

1396 00             1321                        NOP                                ;1396   00

1397 00             1322                        NOP                                ;1397   00

1398 7F01           1323                        MOV   R7,#01H                      ;1398   7F 01

139A 12323A         1324                        LCALL Q323A                        ;139A   12 32 3A

139D A3             1325                        INC   DPTR                         ;139D   A3

139E EF             1326                        MOV   A,R7                         ;139E   EF

139F F0             1327                        MOVX  @DPTR,A                      ;139F   F0

13A0 00             1328                        NOP                                ;13A0   00

13A1 00             1329                        NOP                                ;13A1   00

13A2 7F01           1330                        MOV   R7,#01H                      ;13A2   7F 01

13A4 12323A         1331                        LCALL Q323A                        ;13A4   12 32 3A

13A7 A3             1332                        INC   DPTR                         ;13A7   A3

13A8 EF             1333                        MOV   A,R7                         ;13A8   EF

13A9 F0             1334                        MOVX  @DPTR,A                      ;13A9   F0

13AA 00             1335                        NOP                                ;13AA   00

13AB 00             1336                        NOP                                ;13AB   00

13AC 7F01           1337                        MOV   R7,#01H                      ;13AC   7F 01

13AE 12323A         1338                        LCALL Q323A                        ;13AE   12 32 3A

13B1 A3             1339                        INC   DPTR                         ;13B1   A3

13B2 EF             1340                        MOV   A,R7                         ;13B2   EF

13B3 F0             1341                        MOVX  @DPTR,A                      ;13B3   F0

13B4 00             1342                        NOP                                ;13B4   00

13B5 00             1343                        NOP                                ;13B5   00

13B6 7F01           1344                        MOV   R7,#01H                      ;13B6   7F 01

13B8 12323A         1345                        LCALL Q323A                        ;13B8   12 32 3A

13BB A3             1346                        INC   DPTR                         ;13BB   A3

13BC EF             1347                        MOV   A,R7                         ;13BC   EF

13BD F0             1348                        MOVX  @DPTR,A                      ;13BD   F0

13BE 00             1349                        NOP                                ;13BE   00

13BF 00             1350                        NOP                                ;13BF   00

13C0 7F01           1351                        MOV   R7,#01H                      ;13C0   7F 01

13C2 12323A         1352                        LCALL Q323A                        ;13C2   12 32 3A

13C5 A3             1353                        INC   DPTR                         ;13C5   A3

13C6 EF             1354                        MOV   A,R7                         ;13C6   EF

13C7 F0             1355                        MOVX  @DPTR,A                      ;13C7   F0

13C8 00             1356                        NOP                                ;13C8   00

13C9 00             1357                        NOP                                ;13C9   00

13CA 7F01           1358                        MOV   R7,#01H                      ;13CA   7F 01

13CC 12323A         1359                        LCALL Q323A                        ;13CC   12 32 3A

13CF A3             1360                        INC   DPTR                         ;13CF   A3

13D0 EF             1361                        MOV   A,R7                         ;13D0   EF

13D1 F0             1362                        MOVX  @DPTR,A                      ;13D1   F0

13D2 00             1363                        NOP                                ;13D2   00

13D3 00             1364                        NOP                                ;13D3   00

A51 MACRO ASSEMBLER  __________V0_0                                                       12/04/2016 21:52:57 PAGE    29

13D4 7F01           1365                        MOV   R7,#01H                      ;13D4   7F 01

13D6 12323A         1366                        LCALL Q323A                        ;13D6   12 32 3A

13D9 A3             1367                        INC   DPTR                         ;13D9   A3

13DA EF             1368                        MOV   A,R7                         ;13DA   EF

13DB F0             1369                        MOVX  @DPTR,A                      ;13DB   F0

13DC 00             1370                        NOP                                ;13DC   00

13DD 00             1371                        NOP                                ;13DD   00

13DE 7F01           1372                        MOV   R7,#01H                      ;13DE   7F 01

13E0 12323A         1373                        LCALL Q323A                        ;13E0   12 32 3A

13E3 A3             1374                        INC   DPTR                         ;13E3   A3

13E4 EF             1375                        MOV   A,R7                         ;13E4   EF

13E5 F0             1376                        MOVX  @DPTR,A                      ;13E5   F0

13E6 00             1377                        NOP                                ;13E6   00

13E7 00             1378                        NOP                                ;13E7   00

13E8 7F01           1379                        MOV   R7,#01H                      ;13E8   7F 01

13EA 12323A         1380                        LCALL Q323A                        ;13EA   12 32 3A

13ED A3             1381                        INC   DPTR                         ;13ED   A3

13EE EF             1382                        MOV   A,R7                         ;13EE   EF

13EF F0             1383                        MOVX  @DPTR,A                      ;13EF   F0

13F0 00             1384                        NOP                                ;13F0   00

13F1 00             1385                        NOP                                ;13F1   00

13F2 7F01           1386                        MOV   R7,#01H                      ;13F2   7F 01

13F4 12323A         1387                        LCALL Q323A                        ;13F4   12 32 3A

13F7 A3             1388                        INC   DPTR                         ;13F7   A3

13F8 EF             1389                        MOV   A,R7                         ;13F8   EF

13F9 F0             1390                        MOVX  @DPTR,A                      ;13F9   F0

13FA 00             1391                        NOP                                ;13FA   00

13FB 00             1392                        NOP                                ;13FB   00

13FC 7F01           1393                        MOV   R7,#01H                      ;13FC   7F 01

13FE 12323A         1394                        LCALL Q323A                        ;13FE   12 32 3A

1401 A3             1395                        INC   DPTR                         ;1401   A3

1402 EF             1396                        MOV   A,R7                         ;1402   EF

1403 F0             1397                        MOVX  @DPTR,A                      ;1403   F0

1404 00             1398                        NOP                                ;1404   00

1405 00             1399                        NOP                                ;1405   00

1406 7F01           1400                        MOV   R7,#01H                      ;1406   7F 01

1408 12323A         1401                        LCALL Q323A                        ;1408   12 32 3A

140B A3             1402                        INC   DPTR                         ;140B   A3

140C EF             1403                        MOV   A,R7                         ;140C   EF

140D F0             1404                        MOVX  @DPTR,A                      ;140D   F0

140E 00             1405                        NOP                                ;140E   00

140F 00             1406                        NOP                                ;140F   00

1410 7F01           1407                        MOV   R7,#01H                      ;1410   7F 01

1412 12323A         1408                        LCALL Q323A                        ;1412   12 32 3A

1415 A3             1409                        INC   DPTR                         ;1415   A3

1416 EF             1410                        MOV   A,R7                         ;1416   EF

1417 F0             1411                        MOVX  @DPTR,A                      ;1417   F0

1418 00             1412                        NOP                                ;1418   00

1419 00             1413                        NOP                                ;1419   00

141A 7F01           1414                        MOV   R7,#01H                      ;141A   7F 01

141C 12323A         1415                        LCALL Q323A                        ;141C   12 32 3A

141F A3             1416                        INC   DPTR                         ;141F   A3

1420 EF             1417                        MOV   A,R7                         ;1420   EF

1421 F0             1418                        MOVX  @DPTR,A                      ;1421   F0

1422 00             1419                        NOP                                ;1422   00

1423 00             1420                        NOP                                ;1423   00

1424 7F01           1421                        MOV   R7,#01H                      ;1424   7F 01

1426 12323A         1422                        LCALL Q323A                        ;1426   12 32 3A

1429 A3             1423                        INC   DPTR                         ;1429   A3

142A EF             1424                        MOV   A,R7                         ;142A   EF

142B F0             1425                        MOVX  @DPTR,A                      ;142B   F0

142C 00             1426                        NOP                                ;142C   00

142D 00             1427                        NOP                                ;142D   00

142E 7F01           1428                        MOV   R7,#01H                      ;142E   7F 01

1430 12323A         1429                        LCALL Q323A                        ;1430   12 32 3A

1433 A3             1430                        INC   DPTR                         ;1433   A3

A51 MACRO ASSEMBLER  __________V0_0                                                       12/04/2016 21:52:57 PAGE    30

1434 EF             1431                        MOV   A,R7                         ;1434   EF

1435 F0             1432                        MOVX  @DPTR,A                      ;1435   F0

1436 00             1433                        NOP                                ;1436   00

1437 00             1434                        NOP                                ;1437   00

1438 7F01           1435                        MOV   R7,#01H                      ;1438   7F 01

143A 12323A         1436                        LCALL Q323A                        ;143A   12 32 3A

143D A3             1437                        INC   DPTR                         ;143D   A3

143E EF             1438                        MOV   A,R7                         ;143E   EF

143F F0             1439                        MOVX  @DPTR,A                      ;143F   F0

1440 00             1440                        NOP                                ;1440   00

1441 00             1441                        NOP                                ;1441   00

1442 7F01           1442                        MOV   R7,#01H                      ;1442   7F 01

1444 12323A         1443                        LCALL Q323A                        ;1444   12 32 3A

1447 A3             1444                        INC   DPTR                         ;1447   A3

1448 EF             1445                        MOV   A,R7                         ;1448   EF

1449 F0             1446                        MOVX  @DPTR,A                      ;1449   F0

144A 00             1447                        NOP                                ;144A   00

144B 00             1448                        NOP                                ;144B   00

144C 7F01           1449                        MOV   R7,#01H                      ;144C   7F 01

144E 12323A         1450                        LCALL Q323A                        ;144E   12 32 3A

1451 A3             1451                        INC   DPTR                         ;1451   A3

1452 EF             1452                        MOV   A,R7                         ;1452   EF

1453 F0             1453                        MOVX  @DPTR,A                      ;1453   F0

1454 00             1454                        NOP                                ;1454   00

1455 00             1455                        NOP                                ;1455   00

1456 7F01           1456                        MOV   R7,#01H                      ;1456   7F 01

1458 12323A         1457                        LCALL Q323A                        ;1458   12 32 3A

145B A3             1458                        INC   DPTR                         ;145B   A3

145C EF             1459                        MOV   A,R7                         ;145C   EF

145D F0             1460                        MOVX  @DPTR,A                      ;145D   F0

145E 00             1461                        NOP                                ;145E   00

145F 00             1462                        NOP                                ;145F   00

1460 7F01           1463                        MOV   R7,#01H                      ;1460   7F 01

1462 12323A         1464                        LCALL Q323A                        ;1462   12 32 3A

1465 A3             1465                        INC   DPTR                         ;1465   A3

1466 EF             1466                        MOV   A,R7                         ;1466   EF

1467 F0             1467                        MOVX  @DPTR,A                      ;1467   F0

1468 00             1468                        NOP                                ;1468   00

1469 00             1469                        NOP                                ;1469   00

146A 7F01           1470                        MOV   R7,#01H                      ;146A   7F 01

146C 12323A         1471                        LCALL Q323A                        ;146C   12 32 3A

146F A3             1472                        INC   DPTR                         ;146F   A3

1470 EF             1473                        MOV   A,R7                         ;1470   EF

1471 F0             1474                        MOVX  @DPTR,A                      ;1471   F0

1472 00             1475                        NOP                                ;1472   00

1473 00             1476                        NOP                                ;1473   00

1474 7F01           1477                        MOV   R7,#01H                      ;1474   7F 01

1476 12323A         1478                        LCALL Q323A                        ;1476   12 32 3A

1479 A3             1479                        INC   DPTR                         ;1479   A3

147A EF             1480                        MOV   A,R7                         ;147A   EF

147B F0             1481                        MOVX  @DPTR,A                      ;147B   F0

147C 00             1482                        NOP                                ;147C   00

147D 00             1483                        NOP                                ;147D   00

147E 7F01           1484                        MOV   R7,#01H                      ;147E   7F 01

1480 12323A         1485                        LCALL Q323A                        ;1480   12 32 3A

1483 A3             1486                        INC   DPTR                         ;1483   A3

1484 EF             1487                        MOV   A,R7                         ;1484   EF

1485 F0             1488                        MOVX  @DPTR,A                      ;1485   F0

1486 00             1489                        NOP                                ;1486   00

1487 00             1490                        NOP                                ;1487   00

1488 7F01           1491                        MOV   R7,#01H                      ;1488   7F 01

148A 12323A         1492                        LCALL Q323A                        ;148A   12 32 3A

148D A3             1493                        INC   DPTR                         ;148D   A3

148E EF             1494                        MOV   A,R7                         ;148E   EF

148F F0             1495                        MOVX  @DPTR,A                      ;148F   F0

1490 00             1496                        NOP                                ;1490   00

A51 MACRO ASSEMBLER  __________V0_0                                                       12/04/2016 21:52:57 PAGE    31

1491 00             1497                        NOP                                ;1491   00

1492 7F01           1498                        MOV   R7,#01H                      ;1492   7F 01

1494 12323A         1499                        LCALL Q323A                        ;1494   12 32 3A

1497 A3             1500                        INC   DPTR                         ;1497   A3

1498 EF             1501                        MOV   A,R7                         ;1498   EF

1499 F0             1502                        MOVX  @DPTR,A                      ;1499   F0

149A 00             1503                        NOP                                ;149A   00

149B 00             1504                        NOP                                ;149B   00

149C 7F01           1505                        MOV   R7,#01H                      ;149C   7F 01

149E 12323A         1506                        LCALL Q323A                        ;149E   12 32 3A

14A1 A3             1507                        INC   DPTR                         ;14A1   A3

14A2 EF             1508                        MOV   A,R7                         ;14A2   EF

14A3 F0             1509                        MOVX  @DPTR,A                      ;14A3   F0

14A4 00             1510                        NOP                                ;14A4   00

14A5 00             1511                        NOP                                ;14A5   00

14A6 7F01           1512                        MOV   R7,#01H                      ;14A6   7F 01

14A8 12323A         1513                        LCALL Q323A                        ;14A8   12 32 3A

14AB A3             1514                        INC   DPTR                         ;14AB   A3

14AC EF             1515                        MOV   A,R7                         ;14AC   EF

14AD F0             1516                        MOVX  @DPTR,A                      ;14AD   F0

14AE 00             1517                        NOP                                ;14AE   00

14AF 00             1518                        NOP                                ;14AF   00

14B0 7F01           1519                        MOV   R7,#01H                      ;14B0   7F 01

14B2 12323A         1520                        LCALL Q323A                        ;14B2   12 32 3A

14B5 A3             1521                        INC   DPTR                         ;14B5   A3

14B6 EF             1522                        MOV   A,R7                         ;14B6   EF

14B7 F0             1523                        MOVX  @DPTR,A                      ;14B7   F0

14B8 00             1524                        NOP                                ;14B8   00

14B9 00             1525                        NOP                                ;14B9   00

14BA 7F01           1526                        MOV   R7,#01H                      ;14BA   7F 01

14BC 12323A         1527                        LCALL Q323A                        ;14BC   12 32 3A

14BF A3             1528                        INC   DPTR                         ;14BF   A3

14C0 EF             1529                        MOV   A,R7                         ;14C0   EF

14C1 F0             1530                        MOVX  @DPTR,A                      ;14C1   F0

14C2 00             1531                        NOP                                ;14C2   00

14C3 00             1532                        NOP                                ;14C3   00

14C4 7F01           1533                        MOV   R7,#01H                      ;14C4   7F 01

14C6 12323A         1534                        LCALL Q323A                        ;14C6   12 32 3A

14C9 A3             1535                        INC   DPTR                         ;14C9   A3

14CA EF             1536                        MOV   A,R7                         ;14CA   EF

14CB F0             1537                        MOVX  @DPTR,A                      ;14CB   F0

14CC 00             1538                        NOP                                ;14CC   00

14CD 00             1539                        NOP                                ;14CD   00

14CE 7F01           1540                        MOV   R7,#01H                      ;14CE   7F 01

14D0 12323A         1541                        LCALL Q323A                        ;14D0   12 32 3A

14D3 A3             1542                        INC   DPTR                         ;14D3   A3

14D4 EF             1543                        MOV   A,R7                         ;14D4   EF

14D5 F0             1544                        MOVX  @DPTR,A                      ;14D5   F0

14D6 00             1545                        NOP                                ;14D6   00

14D7 00             1546                        NOP                                ;14D7   00

14D8 7F01           1547                        MOV   R7,#01H                      ;14D8   7F 01

14DA 12323A         1548                        LCALL Q323A                        ;14DA   12 32 3A

14DD A3             1549                        INC   DPTR                         ;14DD   A3

14DE EF             1550                        MOV   A,R7                         ;14DE   EF

14DF F0             1551                        MOVX  @DPTR,A                      ;14DF   F0

14E0 00             1552                        NOP                                ;14E0   00

14E1 00             1553                        NOP                                ;14E1   00

14E2 7F01           1554                        MOV   R7,#01H                      ;14E2   7F 01

14E4 12323A         1555                        LCALL Q323A                        ;14E4   12 32 3A

14E7 A3             1556                        INC   DPTR                         ;14E7   A3

14E8 EF             1557                        MOV   A,R7                         ;14E8   EF

14E9 F0             1558                        MOVX  @DPTR,A                      ;14E9   F0

14EA 00             1559                        NOP                                ;14EA   00

14EB 00             1560                        NOP                                ;14EB   00

14EC 7F01           1561                        MOV   R7,#01H                      ;14EC   7F 01

14EE 12323A         1562                        LCALL Q323A                        ;14EE   12 32 3A

A51 MACRO ASSEMBLER  __________V0_0                                                       12/04/2016 21:52:57 PAGE    32

14F1 A3             1563                        INC   DPTR                         ;14F1   A3

14F2 EF             1564                        MOV   A,R7                         ;14F2   EF

14F3 F0             1565                        MOVX  @DPTR,A                      ;14F3   F0

14F4 00             1566                        NOP                                ;14F4   00

14F5 00             1567                        NOP                                ;14F5   00

14F6 7F01           1568                        MOV   R7,#01H                      ;14F6   7F 01

14F8 12323A         1569                        LCALL Q323A                        ;14F8   12 32 3A

14FB A3             1570                        INC   DPTR                         ;14FB   A3

14FC EF             1571                        MOV   A,R7                         ;14FC   EF

14FD F0             1572                        MOVX  @DPTR,A                      ;14FD   F0

14FE 00             1573                        NOP                                ;14FE   00

14FF 00             1574                        NOP                                ;14FF   00

1500 7F01           1575                        MOV   R7,#01H                      ;1500   7F 01

1502 12323A         1576                        LCALL Q323A                        ;1502   12 32 3A

1505 A3             1577                        INC   DPTR                         ;1505   A3

1506 EF             1578                        MOV   A,R7                         ;1506   EF

1507 F0             1579                        MOVX  @DPTR,A                      ;1507   F0

1508 00             1580                        NOP                                ;1508   00

1509 00             1581                        NOP                                ;1509   00

150A 7F01           1582                        MOV   R7,#01H                      ;150A   7F 01

150C 12323A         1583                        LCALL Q323A                        ;150C   12 32 3A

150F A3             1584                        INC   DPTR                         ;150F   A3

1510 EF             1585                        MOV   A,R7                         ;1510   EF

1511 F0             1586                        MOVX  @DPTR,A                      ;1511   F0

1512 00             1587                        NOP                                ;1512   00

1513 00             1588                        NOP                                ;1513   00

1514 7F01           1589                        MOV   R7,#01H                      ;1514   7F 01

1516 12323A         1590                        LCALL Q323A                        ;1516   12 32 3A

1519 A3             1591                        INC   DPTR                         ;1519   A3

151A EF             1592                        MOV   A,R7                         ;151A   EF

151B F0             1593                        MOVX  @DPTR,A                      ;151B   F0

151C 00             1594                        NOP                                ;151C   00

151D 00             1595                        NOP                                ;151D   00

151E 7F01           1596                        MOV   R7,#01H                      ;151E   7F 01

1520 12323A         1597                        LCALL Q323A                        ;1520   12 32 3A

1523 A3             1598                        INC   DPTR                         ;1523   A3

1524 EF             1599                        MOV   A,R7                         ;1524   EF

1525 F0             1600                        MOVX  @DPTR,A                      ;1525   F0

1526 00             1601                        NOP                                ;1526   00

1527 00             1602                        NOP                                ;1527   00

1528 7F01           1603                        MOV   R7,#01H                      ;1528   7F 01

152A 12323A         1604                        LCALL Q323A                        ;152A   12 32 3A

152D A3             1605                        INC   DPTR                         ;152D   A3

152E EF             1606                        MOV   A,R7                         ;152E   EF

152F F0             1607                        MOVX  @DPTR,A                      ;152F   F0

1530 00             1608                        NOP                                ;1530   00

1531 00             1609                        NOP                                ;1531   00

1532 7F01           1610                        MOV   R7,#01H                      ;1532   7F 01

1534 12323A         1611                        LCALL Q323A                        ;1534   12 32 3A

1537 A3             1612                        INC   DPTR                         ;1537   A3

1538 EF             1613                        MOV   A,R7                         ;1538   EF

1539 F0             1614                        MOVX  @DPTR,A                      ;1539   F0

153A 00             1615                        NOP                                ;153A   00

153B 00             1616                        NOP                                ;153B   00

153C 7F01           1617                        MOV   R7,#01H                      ;153C   7F 01

153E 12323A         1618                        LCALL Q323A                        ;153E   12 32 3A

1541 A3             1619                        INC   DPTR                         ;1541   A3

1542 EF             1620                        MOV   A,R7                         ;1542   EF

1543 F0             1621                        MOVX  @DPTR,A                      ;1543   F0

1544 00             1622                        NOP                                ;1544   00

1545 00             1623                        NOP                                ;1545   00

1546 7F01           1624                        MOV   R7,#01H                      ;1546   7F 01

1548 12323A         1625                        LCALL Q323A                        ;1548   12 32 3A

154B A3             1626                        INC   DPTR                         ;154B   A3

154C EF             1627                        MOV   A,R7                         ;154C   EF

154D F0             1628                        MOVX  @DPTR,A                      ;154D   F0

A51 MACRO ASSEMBLER  __________V0_0                                                       12/04/2016 21:52:57 PAGE    33

154E 00             1629                        NOP                                ;154E   00

154F 00             1630                        NOP                                ;154F   00

1550 7F01           1631                        MOV   R7,#01H                      ;1550   7F 01

1552 12323A         1632                        LCALL Q323A                        ;1552   12 32 3A

1555 A3             1633                        INC   DPTR                         ;1555   A3

1556 EF             1634                        MOV   A,R7                         ;1556   EF

1557 F0             1635                        MOVX  @DPTR,A                      ;1557   F0

1558 00             1636                        NOP                                ;1558   00

1559 00             1637                        NOP                                ;1559   00

155A 7F01           1638                        MOV   R7,#01H                      ;155A   7F 01

155C 12323A         1639                        LCALL Q323A                        ;155C   12 32 3A

155F A3             1640                        INC   DPTR                         ;155F   A3

1560 EF             1641                        MOV   A,R7                         ;1560   EF

1561 F0             1642                        MOVX  @DPTR,A                      ;1561   F0

1562 00             1643                        NOP                                ;1562   00

1563 00             1644                        NOP                                ;1563   00

1564 7F01           1645                        MOV   R7,#01H                      ;1564   7F 01

1566 12323A         1646                        LCALL Q323A                        ;1566   12 32 3A

1569 A3             1647                        INC   DPTR                         ;1569   A3

156A EF             1648                        MOV   A,R7                         ;156A   EF

156B F0             1649                        MOVX  @DPTR,A                      ;156B   F0

156C 00             1650                        NOP                                ;156C   00

156D 00             1651                        NOP                                ;156D   00

156E 7F01           1652                        MOV   R7,#01H                      ;156E   7F 01

1570 12323A         1653                        LCALL Q323A                        ;1570   12 32 3A

1573 A3             1654                        INC   DPTR                         ;1573   A3

1574 EF             1655                        MOV   A,R7                         ;1574   EF

1575 F0             1656                        MOVX  @DPTR,A                      ;1575   F0

1576 00             1657                        NOP                                ;1576   00

1577 00             1658                        NOP                                ;1577   00

1578 7F01           1659                        MOV   R7,#01H                      ;1578   7F 01

157A 12323A         1660                        LCALL Q323A                        ;157A   12 32 3A

157D A3             1661                        INC   DPTR                         ;157D   A3

157E EF             1662                        MOV   A,R7                         ;157E   EF

157F F0             1663                        MOVX  @DPTR,A                      ;157F   F0

1580 00             1664                        NOP                                ;1580   00

1581 00             1665                        NOP                                ;1581   00

1582 7F01           1666                        MOV   R7,#01H                      ;1582   7F 01

1584 12323A         1667                        LCALL Q323A                        ;1584   12 32 3A

1587 A3             1668                        INC   DPTR                         ;1587   A3

1588 EF             1669                        MOV   A,R7                         ;1588   EF

1589 F0             1670                        MOVX  @DPTR,A                      ;1589   F0

158A 00             1671                        NOP                                ;158A   00

158B 00             1672                        NOP                                ;158B   00

158C 7F01           1673                        MOV   R7,#01H                      ;158C   7F 01

158E 12323A         1674                        LCALL Q323A                        ;158E   12 32 3A

1591 A3             1675                        INC   DPTR                         ;1591   A3

1592 EF             1676                        MOV   A,R7                         ;1592   EF

1593 F0             1677                        MOVX  @DPTR,A                      ;1593   F0

1594 00             1678                        NOP                                ;1594   00

1595 00             1679                        NOP                                ;1595   00

1596 7F01           1680                        MOV   R7,#01H                      ;1596   7F 01

1598 12323A         1681                        LCALL Q323A                        ;1598   12 32 3A

159B A3             1682                        INC   DPTR                         ;159B   A3

159C EF             1683                        MOV   A,R7                         ;159C   EF

159D F0             1684                        MOVX  @DPTR,A                      ;159D   F0

159E 00             1685                        NOP                                ;159E   00

159F 00             1686                        NOP                                ;159F   00

15A0 7F01           1687                        MOV   R7,#01H                      ;15A0   7F 01

15A2 12323A         1688                        LCALL Q323A                        ;15A2   12 32 3A

15A5 A3             1689                        INC   DPTR                         ;15A5   A3

15A6 EF             1690                        MOV   A,R7                         ;15A6   EF

15A7 F0             1691                        MOVX  @DPTR,A                      ;15A7   F0

15A8 00             1692                        NOP                                ;15A8   00

15A9 00             1693                        NOP                                ;15A9   00

15AA 7F01           1694                        MOV   R7,#01H                      ;15AA   7F 01

A51 MACRO ASSEMBLER  __________V0_0                                                       12/04/2016 21:52:57 PAGE    34

15AC 12323A         1695                        LCALL Q323A                        ;15AC   12 32 3A

15AF A3             1696                        INC   DPTR                         ;15AF   A3

15B0 EF             1697                        MOV   A,R7                         ;15B0   EF

15B1 F0             1698                        MOVX  @DPTR,A                      ;15B1   F0

15B2 00             1699                        NOP                                ;15B2   00

15B3 00             1700                        NOP                                ;15B3   00

15B4 7F01           1701                        MOV   R7,#01H                      ;15B4   7F 01

15B6 12323A         1702                        LCALL Q323A                        ;15B6   12 32 3A

15B9 A3             1703                        INC   DPTR                         ;15B9   A3

15BA EF             1704                        MOV   A,R7                         ;15BA   EF

15BB F0             1705                        MOVX  @DPTR,A                      ;15BB   F0

15BC 00             1706                        NOP                                ;15BC   00

15BD 00             1707                        NOP                                ;15BD   00

15BE 7F01           1708                        MOV   R7,#01H                      ;15BE   7F 01

15C0 12323A         1709                        LCALL Q323A                        ;15C0   12 32 3A

15C3 A3             1710                        INC   DPTR                         ;15C3   A3

15C4 EF             1711                        MOV   A,R7                         ;15C4   EF

15C5 F0             1712                        MOVX  @DPTR,A                      ;15C5   F0

15C6 00             1713                        NOP                                ;15C6   00

15C7 00             1714                        NOP                                ;15C7   00

15C8 7F01           1715                        MOV   R7,#01H                      ;15C8   7F 01

15CA 12323A         1716                        LCALL Q323A                        ;15CA   12 32 3A

15CD A3             1717                        INC   DPTR                         ;15CD   A3

15CE EF             1718                        MOV   A,R7                         ;15CE   EF

15CF F0             1719                        MOVX  @DPTR,A                      ;15CF   F0

15D0 00             1720                        NOP                                ;15D0   00

15D1 00             1721                        NOP                                ;15D1   00

15D2 7F01           1722                        MOV   R7,#01H                      ;15D2   7F 01

15D4 12323A         1723                        LCALL Q323A                        ;15D4   12 32 3A

15D7 A3             1724                        INC   DPTR                         ;15D7   A3

15D8 EF             1725                        MOV   A,R7                         ;15D8   EF

15D9 F0             1726                        MOVX  @DPTR,A                      ;15D9   F0

15DA 00             1727                        NOP                                ;15DA   00

15DB 00             1728                        NOP                                ;15DB   00

15DC 7F01           1729                        MOV   R7,#01H                      ;15DC   7F 01

15DE 12323A         1730                        LCALL Q323A                        ;15DE   12 32 3A

15E1 A3             1731                        INC   DPTR                         ;15E1   A3

15E2 EF             1732                        MOV   A,R7                         ;15E2   EF

15E3 F0             1733                        MOVX  @DPTR,A                      ;15E3   F0

15E4 00             1734                        NOP                                ;15E4   00

15E5 00             1735                        NOP                                ;15E5   00

15E6 7F01           1736                        MOV   R7,#01H                      ;15E6   7F 01

15E8 12323A         1737                        LCALL Q323A                        ;15E8   12 32 3A

15EB A3             1738                        INC   DPTR                         ;15EB   A3

15EC EF             1739                        MOV   A,R7                         ;15EC   EF

15ED F0             1740                        MOVX  @DPTR,A                      ;15ED   F0

15EE 00             1741                        NOP                                ;15EE   00

15EF 00             1742                        NOP                                ;15EF   00

15F0 7F01           1743                        MOV   R7,#01H                      ;15F0   7F 01

15F2 12323A         1744                        LCALL Q323A                        ;15F2   12 32 3A

15F5 A3             1745                        INC   DPTR                         ;15F5   A3

15F6 EF             1746                        MOV   A,R7                         ;15F6   EF

15F7 F0             1747                        MOVX  @DPTR,A                      ;15F7   F0

15F8 00             1748                        NOP                                ;15F8   00

15F9 00             1749                        NOP                                ;15F9   00

15FA 7F01           1750                        MOV   R7,#01H                      ;15FA   7F 01

15FC 12323A         1751                        LCALL Q323A                        ;15FC   12 32 3A

15FF A3             1752                        INC   DPTR                         ;15FF   A3

1600 EF             1753                        MOV   A,R7                         ;1600   EF

1601 F0             1754                        MOVX  @DPTR,A                      ;1601   F0

1602 00             1755                        NOP                                ;1602   00

1603 00             1756                        NOP                                ;1603   00

1604 7F01           1757                        MOV   R7,#01H                      ;1604   7F 01

1606 12323A         1758                        LCALL Q323A                        ;1606   12 32 3A

1609 A3             1759                        INC   DPTR                         ;1609   A3

160A EF             1760                        MOV   A,R7                         ;160A   EF

A51 MACRO ASSEMBLER  __________V0_0                                                       12/04/2016 21:52:57 PAGE    35

160B F0             1761                        MOVX  @DPTR,A                      ;160B   F0

160C 00             1762                        NOP                                ;160C   00

160D 00             1763                        NOP                                ;160D   00

160E 7F01           1764                        MOV   R7,#01H                      ;160E   7F 01

1610 12323A         1765                        LCALL Q323A                        ;1610   12 32 3A

1613 A3             1766                        INC   DPTR                         ;1613   A3

1614 EF             1767                        MOV   A,R7                         ;1614   EF

1615 F0             1768                        MOVX  @DPTR,A                      ;1615   F0

1616 00             1769                        NOP                                ;1616   00

1617 00             1770                        NOP                                ;1617   00

1618 7F01           1771                        MOV   R7,#01H                      ;1618   7F 01

161A 12323A         1772                        LCALL Q323A                        ;161A   12 32 3A

161D A3             1773                        INC   DPTR                         ;161D   A3

161E EF             1774                        MOV   A,R7                         ;161E   EF

161F F0             1775                        MOVX  @DPTR,A                      ;161F   F0

1620 00             1776                        NOP                                ;1620   00

1621 00             1777                        NOP                                ;1621   00

1622 7F01           1778                        MOV   R7,#01H                      ;1622   7F 01

1624 12323A         1779                        LCALL Q323A                        ;1624   12 32 3A

1627 A3             1780                        INC   DPTR                         ;1627   A3

1628 EF             1781                        MOV   A,R7                         ;1628   EF

1629 F0             1782                        MOVX  @DPTR,A                      ;1629   F0

162A 00             1783                        NOP                                ;162A   00

162B 00             1784                        NOP                                ;162B   00

162C 7F01           1785                        MOV   R7,#01H                      ;162C   7F 01

162E 12323A         1786                        LCALL Q323A                        ;162E   12 32 3A

1631 A3             1787                        INC   DPTR                         ;1631   A3

1632 EF             1788                        MOV   A,R7                         ;1632   EF

1633 F0             1789                        MOVX  @DPTR,A                      ;1633   F0

1634 00             1790                        NOP                                ;1634   00

1635 00             1791                        NOP                                ;1635   00

1636 7F01           1792                        MOV   R7,#01H                      ;1636   7F 01

1638 12323A         1793                        LCALL Q323A                        ;1638   12 32 3A

163B A3             1794                        INC   DPTR                         ;163B   A3

163C EF             1795                        MOV   A,R7                         ;163C   EF

163D F0             1796                        MOVX  @DPTR,A                      ;163D   F0

163E 00             1797                        NOP                                ;163E   00

163F 00             1798                        NOP                                ;163F   00

1640 7F01           1799                        MOV   R7,#01H                      ;1640   7F 01

1642 12323A         1800                        LCALL Q323A                        ;1642   12 32 3A

1645 A3             1801                        INC   DPTR                         ;1645   A3

1646 EF             1802                        MOV   A,R7                         ;1646   EF

1647 F0             1803                        MOVX  @DPTR,A                      ;1647   F0

1648 00             1804                        NOP                                ;1648   00

1649 00             1805                        NOP                                ;1649   00

164A 7F01           1806                        MOV   R7,#01H                      ;164A   7F 01

164C 12323A         1807                        LCALL Q323A                        ;164C   12 32 3A

164F A3             1808                        INC   DPTR                         ;164F   A3

1650 EF             1809                        MOV   A,R7                         ;1650   EF

1651 F0             1810                        MOVX  @DPTR,A                      ;1651   F0

1652 00             1811                        NOP                                ;1652   00

1653 00             1812                        NOP                                ;1653   00

1654 7F01           1813                        MOV   R7,#01H                      ;1654   7F 01

1656 12323A         1814                        LCALL Q323A                        ;1656   12 32 3A

1659 A3             1815                        INC   DPTR                         ;1659   A3

165A EF             1816                        MOV   A,R7                         ;165A   EF

165B F0             1817                        MOVX  @DPTR,A                      ;165B   F0

165C 00             1818                        NOP                                ;165C   00

165D 00             1819                        NOP                                ;165D   00

165E 7F01           1820                        MOV   R7,#01H                      ;165E   7F 01

1660 12323A         1821                        LCALL Q323A                        ;1660   12 32 3A

1663 A3             1822                        INC   DPTR                         ;1663   A3

1664 EF             1823                        MOV   A,R7                         ;1664   EF

1665 F0             1824                        MOVX  @DPTR,A                      ;1665   F0

1666 00             1825                        NOP                                ;1666   00

1667 00             1826                        NOP                                ;1667   00

A51 MACRO ASSEMBLER  __________V0_0                                                       12/04/2016 21:52:57 PAGE    36

1668 7F01           1827                        MOV   R7,#01H                      ;1668   7F 01

166A 12323A         1828                        LCALL Q323A                        ;166A   12 32 3A

166D A3             1829                        INC   DPTR                         ;166D   A3

166E EF             1830                        MOV   A,R7                         ;166E   EF

166F F0             1831                        MOVX  @DPTR,A                      ;166F   F0

1670 00             1832                        NOP                                ;1670   00

1671 00             1833                        NOP                                ;1671   00

1672 7F01           1834                        MOV   R7,#01H                      ;1672   7F 01

1674 12323A         1835                        LCALL Q323A                        ;1674   12 32 3A

1677 A3             1836                        INC   DPTR                         ;1677   A3

1678 EF             1837                        MOV   A,R7                         ;1678   EF

1679 F0             1838                        MOVX  @DPTR,A                      ;1679   F0

167A 00             1839                        NOP                                ;167A   00

167B 00             1840                        NOP                                ;167B   00

167C 7F01           1841                        MOV   R7,#01H                      ;167C   7F 01

167E 12323A         1842                        LCALL Q323A                        ;167E   12 32 3A

1681 A3             1843                        INC   DPTR                         ;1681   A3

1682 EF             1844                        MOV   A,R7                         ;1682   EF

1683 F0             1845                        MOVX  @DPTR,A                      ;1683   F0

1684 00             1846                        NOP                                ;1684   00

1685 00             1847                        NOP                                ;1685   00

1686 7F01           1848                        MOV   R7,#01H                      ;1686   7F 01

1688 12323A         1849                        LCALL Q323A                        ;1688   12 32 3A

168B A3             1850                        INC   DPTR                         ;168B   A3

168C EF             1851                        MOV   A,R7                         ;168C   EF

168D F0             1852                        MOVX  @DPTR,A                      ;168D   F0

168E 00             1853                        NOP                                ;168E   00

168F 00             1854                        NOP                                ;168F   00

1690 7F01           1855                        MOV   R7,#01H                      ;1690   7F 01

1692 12323A         1856                        LCALL Q323A                        ;1692   12 32 3A

1695 A3             1857                        INC   DPTR                         ;1695   A3

1696 EF             1858                        MOV   A,R7                         ;1696   EF

1697 F0             1859                        MOVX  @DPTR,A                      ;1697   F0

1698 00             1860                        NOP                                ;1698   00

1699 00             1861                        NOP                                ;1699   00

169A 7F01           1862                        MOV   R7,#01H                      ;169A   7F 01

169C 12323A         1863                        LCALL Q323A                        ;169C   12 32 3A

169F A3             1864                        INC   DPTR                         ;169F   A3

16A0 EF             1865                        MOV   A,R7                         ;16A0   EF

16A1 F0             1866                        MOVX  @DPTR,A                      ;16A1   F0

16A2 00             1867                        NOP                                ;16A2   00

16A3 00             1868                        NOP                                ;16A3   00

16A4 7F01           1869                        MOV   R7,#01H                      ;16A4   7F 01

16A6 12323A         1870                        LCALL Q323A                        ;16A6   12 32 3A

16A9 A3             1871                        INC   DPTR                         ;16A9   A3

16AA EF             1872                        MOV   A,R7                         ;16AA   EF

16AB F0             1873                        MOVX  @DPTR,A                      ;16AB   F0

16AC 00             1874                        NOP                                ;16AC   00

16AD 00             1875                        NOP                                ;16AD   00

16AE 7F01           1876                        MOV   R7,#01H                      ;16AE   7F 01

16B0 12323A         1877                        LCALL Q323A                        ;16B0   12 32 3A

16B3 A3             1878                        INC   DPTR                         ;16B3   A3

16B4 EF             1879                        MOV   A,R7                         ;16B4   EF

16B5 F0             1880                        MOVX  @DPTR,A                      ;16B5   F0

16B6 00             1881                        NOP                                ;16B6   00

16B7 00             1882                        NOP                                ;16B7   00

16B8 7F01           1883                        MOV   R7,#01H                      ;16B8   7F 01

16BA 12323A         1884                        LCALL Q323A                        ;16BA   12 32 3A

16BD A3             1885                        INC   DPTR                         ;16BD   A3

16BE EF             1886                        MOV   A,R7                         ;16BE   EF

16BF F0             1887                        MOVX  @DPTR,A                      ;16BF   F0

16C0 00             1888                        NOP                                ;16C0   00

16C1 00             1889                        NOP                                ;16C1   00

16C2 7F01           1890                        MOV   R7,#01H                      ;16C2   7F 01

16C4 12323A         1891                        LCALL Q323A                        ;16C4   12 32 3A

16C7 A3             1892                        INC   DPTR                         ;16C7   A3

A51 MACRO ASSEMBLER  __________V0_0                                                       12/04/2016 21:52:57 PAGE    37

16C8 EF             1893                        MOV   A,R7                         ;16C8   EF

16C9 F0             1894                        MOVX  @DPTR,A                      ;16C9   F0

16CA 00             1895                        NOP                                ;16CA   00

16CB 00             1896                        NOP                                ;16CB   00

16CC 7F01           1897                        MOV   R7,#01H                      ;16CC   7F 01

16CE 12323A         1898                        LCALL Q323A                        ;16CE   12 32 3A

16D1 A3             1899                        INC   DPTR                         ;16D1   A3

16D2 EF             1900                        MOV   A,R7                         ;16D2   EF

16D3 F0             1901                        MOVX  @DPTR,A                      ;16D3   F0

16D4 00             1902                        NOP                                ;16D4   00

16D5 00             1903                        NOP                                ;16D5   00

16D6 7F01           1904                        MOV   R7,#01H                      ;16D6   7F 01

16D8 12323A         1905                        LCALL Q323A                        ;16D8   12 32 3A

16DB A3             1906                        INC   DPTR                         ;16DB   A3

16DC EF             1907                        MOV   A,R7                         ;16DC   EF

16DD F0             1908                        MOVX  @DPTR,A                      ;16DD   F0

16DE 00             1909                        NOP                                ;16DE   00

16DF 00             1910                        NOP                                ;16DF   00

16E0 7F01           1911                        MOV   R7,#01H                      ;16E0   7F 01

16E2 12323A         1912                        LCALL Q323A                        ;16E2   12 32 3A

16E5 A3             1913                        INC   DPTR                         ;16E5   A3

16E6 EF             1914                        MOV   A,R7                         ;16E6   EF

16E7 F0             1915                        MOVX  @DPTR,A                      ;16E7   F0

16E8 00             1916                        NOP                                ;16E8   00

16E9 00             1917                        NOP                                ;16E9   00

16EA 7F01           1918                        MOV   R7,#01H                      ;16EA   7F 01

16EC 12323A         1919                        LCALL Q323A                        ;16EC   12 32 3A

16EF A3             1920                        INC   DPTR                         ;16EF   A3

16F0 EF             1921                        MOV   A,R7                         ;16F0   EF

16F1 F0             1922                        MOVX  @DPTR,A                      ;16F1   F0

16F2 00             1923                        NOP                                ;16F2   00

16F3 00             1924                        NOP                                ;16F3   00

16F4 7F01           1925                        MOV   R7,#01H                      ;16F4   7F 01

16F6 12323A         1926                        LCALL Q323A                        ;16F6   12 32 3A

16F9 A3             1927                        INC   DPTR                         ;16F9   A3

16FA EF             1928                        MOV   A,R7                         ;16FA   EF

16FB F0             1929                        MOVX  @DPTR,A                      ;16FB   F0

16FC 00             1930                        NOP                                ;16FC   00

16FD 00             1931                        NOP                                ;16FD   00

16FE 7F01           1932                        MOV   R7,#01H                      ;16FE   7F 01

1700 12323A         1933                        LCALL Q323A                        ;1700   12 32 3A

1703 A3             1934                        INC   DPTR                         ;1703   A3

1704 EF             1935                        MOV   A,R7                         ;1704   EF

1705 F0             1936                        MOVX  @DPTR,A                      ;1705   F0

1706 00             1937                        NOP                                ;1706   00

1707 00             1938                        NOP                                ;1707   00

1708 7F01           1939                        MOV   R7,#01H                      ;1708   7F 01

170A 12323A         1940                        LCALL Q323A                        ;170A   12 32 3A

170D A3             1941                        INC   DPTR                         ;170D   A3

170E EF             1942                        MOV   A,R7                         ;170E   EF

170F F0             1943                        MOVX  @DPTR,A                      ;170F   F0

1710 00             1944                        NOP                                ;1710   00

1711 00             1945                        NOP                                ;1711   00

1712 7F01           1946                        MOV   R7,#01H                      ;1712   7F 01

1714 12323A         1947                        LCALL Q323A                        ;1714   12 32 3A

1717 A3             1948                        INC   DPTR                         ;1717   A3

1718 EF             1949                        MOV   A,R7                         ;1718   EF

1719 F0             1950                        MOVX  @DPTR,A                      ;1719   F0

171A 00             1951                        NOP                                ;171A   00

171B 00             1952                        NOP                                ;171B   00

171C 7F01           1953                        MOV   R7,#01H                      ;171C   7F 01

171E 12323A         1954                        LCALL Q323A                        ;171E   12 32 3A

1721 A3             1955                        INC   DPTR                         ;1721   A3

1722 EF             1956                        MOV   A,R7                         ;1722   EF

1723 F0             1957                        MOVX  @DPTR,A                      ;1723   F0

1724 00             1958                        NOP                                ;1724   00

A51 MACRO ASSEMBLER  __________V0_0                                                       12/04/2016 21:52:57 PAGE    38

1725 00             1959                        NOP                                ;1725   00

1726 7F01           1960                        MOV   R7,#01H                      ;1726   7F 01

1728 12323A         1961                        LCALL Q323A                        ;1728   12 32 3A

172B A3             1962                        INC   DPTR                         ;172B   A3

172C EF             1963                        MOV   A,R7                         ;172C   EF

172D F0             1964                        MOVX  @DPTR,A                      ;172D   F0

172E 00             1965                        NOP                                ;172E   00

172F 00             1966                        NOP                                ;172F   00

1730 7F01           1967                        MOV   R7,#01H                      ;1730   7F 01

1732 12323A         1968                        LCALL Q323A                        ;1732   12 32 3A

1735 A3             1969                        INC   DPTR                         ;1735   A3

1736 EF             1970                        MOV   A,R7                         ;1736   EF

1737 F0             1971                        MOVX  @DPTR,A                      ;1737   F0

1738 00             1972                        NOP                                ;1738   00

1739 00             1973                        NOP                                ;1739   00

173A 7F01           1974                        MOV   R7,#01H                      ;173A   7F 01

173C 12323A         1975                        LCALL Q323A                        ;173C   12 32 3A

173F A3             1976                        INC   DPTR                         ;173F   A3

1740 EF             1977                        MOV   A,R7                         ;1740   EF

1741 F0             1978                        MOVX  @DPTR,A                      ;1741   F0

1742 00             1979                        NOP                                ;1742   00

1743 00             1980                        NOP                                ;1743   00

1744 7F01           1981                        MOV   R7,#01H                      ;1744   7F 01

1746 12323A         1982                        LCALL Q323A                        ;1746   12 32 3A

1749 A3             1983                        INC   DPTR                         ;1749   A3

174A EF             1984                        MOV   A,R7                         ;174A   EF

174B F0             1985                        MOVX  @DPTR,A                      ;174B   F0

174C 00             1986                        NOP                                ;174C   00

174D 00             1987                        NOP                                ;174D   00

174E 7F01           1988                        MOV   R7,#01H                      ;174E   7F 01

1750 12323A         1989                        LCALL Q323A                        ;1750   12 32 3A

1753 A3             1990                        INC   DPTR                         ;1753   A3

1754 EF             1991                        MOV   A,R7                         ;1754   EF

1755 F0             1992                        MOVX  @DPTR,A                      ;1755   F0

1756 00             1993                        NOP                                ;1756   00

1757 00             1994                        NOP                                ;1757   00

1758 7F01           1995                        MOV   R7,#01H                      ;1758   7F 01

175A 12323A         1996                        LCALL Q323A                        ;175A   12 32 3A

175D A3             1997                        INC   DPTR                         ;175D   A3

175E EF             1998                        MOV   A,R7                         ;175E   EF

175F F0             1999                        MOVX  @DPTR,A                      ;175F   F0

1760 00             2000                        NOP                                ;1760   00

1761 00             2001                        NOP                                ;1761   00

1762 7F01           2002                        MOV   R7,#01H                      ;1762   7F 01

1764 12323A         2003                        LCALL Q323A                        ;1764   12 32 3A

1767 A3             2004                        INC   DPTR                         ;1767   A3

1768 EF             2005                        MOV   A,R7                         ;1768   EF

1769 F0             2006                        MOVX  @DPTR,A                      ;1769   F0

176A 00             2007                        NOP                                ;176A   00

176B 00             2008                        NOP                                ;176B   00

176C 7F01           2009                        MOV   R7,#01H                      ;176C   7F 01

176E 12323A         2010                        LCALL Q323A                        ;176E   12 32 3A

1771 A3             2011                        INC   DPTR                         ;1771   A3

1772 EF             2012                        MOV   A,R7                         ;1772   EF

1773 F0             2013                        MOVX  @DPTR,A                      ;1773   F0

1774 00             2014                        NOP                                ;1774   00

1775 00             2015                        NOP                                ;1775   00

1776 7F01           2016                        MOV   R7,#01H                      ;1776   7F 01

1778 12323A         2017                        LCALL Q323A                        ;1778   12 32 3A

177B A3             2018                        INC   DPTR                         ;177B   A3

177C EF             2019                        MOV   A,R7                         ;177C   EF

177D F0             2020                        MOVX  @DPTR,A                      ;177D   F0

177E 00             2021                        NOP                                ;177E   00

177F 00             2022                        NOP                                ;177F   00

1780 7F01           2023                        MOV   R7,#01H                      ;1780   7F 01

1782 12323A         2024                        LCALL Q323A                        ;1782   12 32 3A

A51 MACRO ASSEMBLER  __________V0_0                                                       12/04/2016 21:52:57 PAGE    39

1785 A3             2025                        INC   DPTR                         ;1785   A3

1786 EF             2026                        MOV   A,R7                         ;1786   EF

1787 F0             2027                        MOVX  @DPTR,A                      ;1787   F0

1788 00             2028                        NOP                                ;1788   00

1789 00             2029                        NOP                                ;1789   00

178A 7F01           2030                        MOV   R7,#01H                      ;178A   7F 01

178C 12323A         2031                        LCALL Q323A                        ;178C   12 32 3A

178F A3             2032                        INC   DPTR                         ;178F   A3

1790 EF             2033                        MOV   A,R7                         ;1790   EF

1791 F0             2034                        MOVX  @DPTR,A                      ;1791   F0

1792 00             2035                        NOP                                ;1792   00

1793 00             2036                        NOP                                ;1793   00

1794 7F01           2037                        MOV   R7,#01H                      ;1794   7F 01

1796 12323A         2038                        LCALL Q323A                        ;1796   12 32 3A

1799 A3             2039                        INC   DPTR                         ;1799   A3

179A EF             2040                        MOV   A,R7                         ;179A   EF

179B F0             2041                        MOVX  @DPTR,A                      ;179B   F0

179C 00             2042                        NOP                                ;179C   00

179D 00             2043                        NOP                                ;179D   00

179E 7F01           2044                        MOV   R7,#01H                      ;179E   7F 01

17A0 12323A         2045                        LCALL Q323A                        ;17A0   12 32 3A

17A3 A3             2046                        INC   DPTR                         ;17A3   A3

17A4 EF             2047                        MOV   A,R7                         ;17A4   EF

17A5 F0             2048                        MOVX  @DPTR,A                      ;17A5   F0

17A6 00             2049                        NOP                                ;17A6   00

17A7 00             2050                        NOP                                ;17A7   00

17A8 7F01           2051                        MOV   R7,#01H                      ;17A8   7F 01

17AA 12323A         2052                        LCALL Q323A                        ;17AA   12 32 3A

17AD A3             2053                        INC   DPTR                         ;17AD   A3

17AE EF             2054                        MOV   A,R7                         ;17AE   EF

17AF F0             2055                        MOVX  @DPTR,A                      ;17AF   F0

17B0 00             2056                        NOP                                ;17B0   00

17B1 00             2057                        NOP                                ;17B1   00

17B2 7F01           2058                        MOV   R7,#01H                      ;17B2   7F 01

17B4 12323A         2059                        LCALL Q323A                        ;17B4   12 32 3A

17B7 A3             2060                        INC   DPTR                         ;17B7   A3

17B8 EF             2061                        MOV   A,R7                         ;17B8   EF

17B9 F0             2062                        MOVX  @DPTR,A                      ;17B9   F0

17BA 00             2063                        NOP                                ;17BA   00

17BB 00             2064                        NOP                                ;17BB   00

17BC 7F01           2065                        MOV   R7,#01H                      ;17BC   7F 01

17BE 12323A         2066                        LCALL Q323A                        ;17BE   12 32 3A

17C1 A3             2067                        INC   DPTR                         ;17C1   A3

17C2 EF             2068                        MOV   A,R7                         ;17C2   EF

17C3 F0             2069                        MOVX  @DPTR,A                      ;17C3   F0

17C4 00             2070                        NOP                                ;17C4   00

17C5 00             2071                        NOP                                ;17C5   00

17C6 7F01           2072                        MOV   R7,#01H                      ;17C6   7F 01

17C8 12323A         2073                        LCALL Q323A                        ;17C8   12 32 3A

17CB A3             2074                        INC   DPTR                         ;17CB   A3

17CC EF             2075                        MOV   A,R7                         ;17CC   EF

17CD F0             2076                        MOVX  @DPTR,A                      ;17CD   F0

17CE 00             2077                        NOP                                ;17CE   00

17CF 00             2078                        NOP                                ;17CF   00

17D0 7F01           2079                        MOV   R7,#01H                      ;17D0   7F 01

17D2 12323A         2080                        LCALL Q323A                        ;17D2   12 32 3A

17D5 A3             2081                        INC   DPTR                         ;17D5   A3

17D6 EF             2082                        MOV   A,R7                         ;17D6   EF

17D7 F0             2083                        MOVX  @DPTR,A                      ;17D7   F0

17D8 00             2084                        NOP                                ;17D8   00

17D9 00             2085                        NOP                                ;17D9   00

17DA 7F01           2086                        MOV   R7,#01H                      ;17DA   7F 01

17DC 12323A         2087                        LCALL Q323A                        ;17DC   12 32 3A

17DF A3             2088                        INC   DPTR                         ;17DF   A3

17E0 EF             2089                        MOV   A,R7                         ;17E0   EF

17E1 F0             2090                        MOVX  @DPTR,A                      ;17E1   F0

A51 MACRO ASSEMBLER  __________V0_0                                                       12/04/2016 21:52:57 PAGE    40

17E2 00             2091                        NOP                                ;17E2   00

17E3 00             2092                        NOP                                ;17E3   00

17E4 7F01           2093                        MOV   R7,#01H                      ;17E4   7F 01

17E6 12323A         2094                        LCALL Q323A                        ;17E6   12 32 3A

17E9 A3             2095                        INC   DPTR                         ;17E9   A3

17EA EF             2096                        MOV   A,R7                         ;17EA   EF

17EB F0             2097                        MOVX  @DPTR,A                      ;17EB   F0

17EC 00             2098                        NOP                                ;17EC   00

17ED 00             2099                        NOP                                ;17ED   00

17EE 7F01           2100                        MOV   R7,#01H                      ;17EE   7F 01

17F0 12323A         2101                        LCALL Q323A                        ;17F0   12 32 3A

17F3 A3             2102                        INC   DPTR                         ;17F3   A3

17F4 EF             2103                        MOV   A,R7                         ;17F4   EF

17F5 F0             2104                        MOVX  @DPTR,A                      ;17F5   F0

17F6 00             2105                        NOP                                ;17F6   00

17F7 00             2106                        NOP                                ;17F7   00

17F8 7F01           2107                        MOV   R7,#01H                      ;17F8   7F 01

17FA 12323A         2108                        LCALL Q323A                        ;17FA   12 32 3A

17FD A3             2109                        INC   DPTR                         ;17FD   A3

17FE EF             2110                        MOV   A,R7                         ;17FE   EF

17FF F0             2111                        MOVX  @DPTR,A                      ;17FF   F0

1800 00             2112                        NOP                                ;1800   00

1801 00             2113                        NOP                                ;1801   00

1802 7F01           2114                        MOV   R7,#01H                      ;1802   7F 01

1804 12323A         2115                        LCALL Q323A                        ;1804   12 32 3A

1807 A3             2116                        INC   DPTR                         ;1807   A3

1808 EF             2117                        MOV   A,R7                         ;1808   EF

1809 F0             2118                        MOVX  @DPTR,A                      ;1809   F0

180A 00             2119                        NOP                                ;180A   00

180B 00             2120                        NOP                                ;180B   00

180C 7F01           2121                        MOV   R7,#01H                      ;180C   7F 01

180E 12323A         2122                        LCALL Q323A                        ;180E   12 32 3A

1811 A3             2123                        INC   DPTR                         ;1811   A3

1812 EF             2124                        MOV   A,R7                         ;1812   EF

1813 F0             2125                        MOVX  @DPTR,A                      ;1813   F0

1814 00             2126                        NOP                                ;1814   00

1815 00             2127                        NOP                                ;1815   00

1816 7F01           2128                        MOV   R7,#01H                      ;1816   7F 01

1818 12323A         2129                        LCALL Q323A                        ;1818   12 32 3A

181B A3             2130                        INC   DPTR                         ;181B   A3

181C EF             2131                        MOV   A,R7                         ;181C   EF

181D F0             2132                        MOVX  @DPTR,A                      ;181D   F0

181E 00             2133                        NOP                                ;181E   00

181F 00             2134                        NOP                                ;181F   00

1820 7F01           2135                        MOV   R7,#01H                      ;1820   7F 01

1822 12323A         2136                        LCALL Q323A                        ;1822   12 32 3A

1825 A3             2137                        INC   DPTR                         ;1825   A3

1826 EF             2138                        MOV   A,R7                         ;1826   EF

1827 F0             2139                        MOVX  @DPTR,A                      ;1827   F0

1828 00             2140                        NOP                                ;1828   00

1829 00             2141                        NOP                                ;1829   00

182A 7F01           2142                        MOV   R7,#01H                      ;182A   7F 01

182C 12323A         2143                        LCALL Q323A                        ;182C   12 32 3A

182F A3             2144                        INC   DPTR                         ;182F   A3

1830 EF             2145                        MOV   A,R7                         ;1830   EF

1831 F0             2146                        MOVX  @DPTR,A                      ;1831   F0

1832 00             2147                        NOP                                ;1832   00

1833 00             2148                        NOP                                ;1833   00

1834 7F01           2149                        MOV   R7,#01H                      ;1834   7F 01

1836 12323A         2150                        LCALL Q323A                        ;1836   12 32 3A

1839 A3             2151                        INC   DPTR                         ;1839   A3

183A EF             2152                        MOV   A,R7                         ;183A   EF

183B F0             2153                        MOVX  @DPTR,A                      ;183B   F0

183C 00             2154                        NOP                                ;183C   00

183D 00             2155                        NOP                                ;183D   00

183E 7F01           2156                        MOV   R7,#01H                      ;183E   7F 01

A51 MACRO ASSEMBLER  __________V0_0                                                       12/04/2016 21:52:57 PAGE    41

1840 12323A         2157                        LCALL Q323A                        ;1840   12 32 3A

1843 A3             2158                        INC   DPTR                         ;1843   A3

1844 EF             2159                        MOV   A,R7                         ;1844   EF

1845 F0             2160                        MOVX  @DPTR,A                      ;1845   F0

1846 00             2161                        NOP                                ;1846   00

1847 00             2162                        NOP                                ;1847   00

1848 7F01           2163                        MOV   R7,#01H                      ;1848   7F 01

184A 12323A         2164                        LCALL Q323A                        ;184A   12 32 3A

184D A3             2165                        INC   DPTR                         ;184D   A3

184E EF             2166                        MOV   A,R7                         ;184E   EF

184F F0             2167                        MOVX  @DPTR,A                      ;184F   F0

1850 00             2168                        NOP                                ;1850   00

1851 00             2169                        NOP                                ;1851   00

1852 7F01           2170                        MOV   R7,#01H                      ;1852   7F 01

1854 12323A         2171                        LCALL Q323A                        ;1854   12 32 3A

1857 A3             2172                        INC   DPTR                         ;1857   A3

1858 EF             2173                        MOV   A,R7                         ;1858   EF

1859 F0             2174                        MOVX  @DPTR,A                      ;1859   F0

185A 00             2175                        NOP                                ;185A   00

185B 00             2176                        NOP                                ;185B   00

185C 7F01           2177                        MOV   R7,#01H                      ;185C   7F 01

185E 12323A         2178                        LCALL Q323A                        ;185E   12 32 3A

1861 A3             2179                        INC   DPTR                         ;1861   A3

1862 EF             2180                        MOV   A,R7                         ;1862   EF

1863 F0             2181                        MOVX  @DPTR,A                      ;1863   F0

1864 00             2182                        NOP                                ;1864   00

1865 00             2183                        NOP                                ;1865   00

1866 7F01           2184                        MOV   R7,#01H                      ;1866   7F 01

1868 12323A         2185                        LCALL Q323A                        ;1868   12 32 3A

186B A3             2186                        INC   DPTR                         ;186B   A3

186C EF             2187                        MOV   A,R7                         ;186C   EF

186D F0             2188                        MOVX  @DPTR,A                      ;186D   F0

186E 00             2189                        NOP                                ;186E   00

186F 00             2190                        NOP                                ;186F   00

1870 7F01           2191                        MOV   R7,#01H                      ;1870   7F 01

1872 12323A         2192                        LCALL Q323A                        ;1872   12 32 3A

1875 A3             2193                        INC   DPTR                         ;1875   A3

1876 EF             2194                        MOV   A,R7                         ;1876   EF

1877 F0             2195                        MOVX  @DPTR,A                      ;1877   F0

1878 00             2196                        NOP                                ;1878   00

1879 00             2197                        NOP                                ;1879   00

187A 7F01           2198                        MOV   R7,#01H                      ;187A   7F 01

187C 12323A         2199                        LCALL Q323A                        ;187C   12 32 3A

187F A3             2200                        INC   DPTR                         ;187F   A3

1880 EF             2201                        MOV   A,R7                         ;1880   EF

1881 F0             2202                        MOVX  @DPTR,A                      ;1881   F0

1882 00             2203                        NOP                                ;1882   00

1883 00             2204                        NOP                                ;1883   00

1884 7F01           2205                        MOV   R7,#01H                      ;1884   7F 01

1886 12323A         2206                        LCALL Q323A                        ;1886   12 32 3A

1889 A3             2207                        INC   DPTR                         ;1889   A3

188A EF             2208                        MOV   A,R7                         ;188A   EF

188B F0             2209                        MOVX  @DPTR,A                      ;188B   F0

188C 00             2210                        NOP                                ;188C   00

188D 00             2211                        NOP                                ;188D   00

188E 7F01           2212                        MOV   R7,#01H                      ;188E   7F 01

1890 12323A         2213                        LCALL Q323A                        ;1890   12 32 3A

1893 A3             2214                        INC   DPTR                         ;1893   A3

1894 EF             2215                        MOV   A,R7                         ;1894   EF

1895 F0             2216                        MOVX  @DPTR,A                      ;1895   F0

1896 00             2217                        NOP                                ;1896   00

1897 00             2218                        NOP                                ;1897   00

1898 7F01           2219                        MOV   R7,#01H                      ;1898   7F 01

189A 12323A         2220                        LCALL Q323A                        ;189A   12 32 3A

189D A3             2221                        INC   DPTR                         ;189D   A3

189E EF             2222                        MOV   A,R7                         ;189E   EF

A51 MACRO ASSEMBLER  __________V0_0                                                       12/04/2016 21:52:57 PAGE    42

189F F0             2223                        MOVX  @DPTR,A                      ;189F   F0

18A0 00             2224                        NOP                                ;18A0   00

18A1 00             2225                        NOP                                ;18A1   00

18A2 7F01           2226                        MOV   R7,#01H                      ;18A2   7F 01

18A4 12323A         2227                        LCALL Q323A                        ;18A4   12 32 3A

18A7 A3             2228                        INC   DPTR                         ;18A7   A3

18A8 EF             2229                        MOV   A,R7                         ;18A8   EF

18A9 F0             2230                        MOVX  @DPTR,A                      ;18A9   F0

18AA 00             2231                        NOP                                ;18AA   00

18AB 00             2232                        NOP                                ;18AB   00

18AC 7F01           2233                        MOV   R7,#01H                      ;18AC   7F 01

18AE 12323A         2234                        LCALL Q323A                        ;18AE   12 32 3A

18B1 A3             2235                        INC   DPTR                         ;18B1   A3

18B2 EF             2236                        MOV   A,R7                         ;18B2   EF

18B3 F0             2237                        MOVX  @DPTR,A                      ;18B3   F0

18B4 00             2238                        NOP                                ;18B4   00

18B5 00             2239                        NOP                                ;18B5   00

18B6 7F01           2240                        MOV   R7,#01H                      ;18B6   7F 01

18B8 12323A         2241                        LCALL Q323A                        ;18B8   12 32 3A

18BB A3             2242                        INC   DPTR                         ;18BB   A3

18BC EF             2243                        MOV   A,R7                         ;18BC   EF

18BD F0             2244                        MOVX  @DPTR,A                      ;18BD   F0

18BE 00             2245                        NOP                                ;18BE   00

18BF 00             2246                        NOP                                ;18BF   00

18C0 7F01           2247                        MOV   R7,#01H                      ;18C0   7F 01

18C2 12323A         2248                        LCALL Q323A                        ;18C2   12 32 3A

18C5 A3             2249                        INC   DPTR                         ;18C5   A3

18C6 EF             2250                        MOV   A,R7                         ;18C6   EF

18C7 F0             2251                        MOVX  @DPTR,A                      ;18C7   F0

18C8 00             2252                        NOP                                ;18C8   00

18C9 00             2253                        NOP                                ;18C9   00

18CA 7F01           2254                        MOV   R7,#01H                      ;18CA   7F 01

18CC 12323A         2255                        LCALL Q323A                        ;18CC   12 32 3A

18CF A3             2256                        INC   DPTR                         ;18CF   A3

18D0 EF             2257                        MOV   A,R7                         ;18D0   EF

18D1 F0             2258                        MOVX  @DPTR,A                      ;18D1   F0

18D2 00             2259                        NOP                                ;18D2   00

18D3 00             2260                        NOP                                ;18D3   00

18D4 7F01           2261                        MOV   R7,#01H                      ;18D4   7F 01

18D6 12323A         2262                        LCALL Q323A                        ;18D6   12 32 3A

18D9 A3             2263                        INC   DPTR                         ;18D9   A3

18DA EF             2264                        MOV   A,R7                         ;18DA   EF

18DB F0             2265                        MOVX  @DPTR,A                      ;18DB   F0

18DC 00             2266                        NOP                                ;18DC   00

18DD 00             2267                        NOP                                ;18DD   00

18DE 7F01           2268                        MOV   R7,#01H                      ;18DE   7F 01

18E0 12323A         2269                        LCALL Q323A                        ;18E0   12 32 3A

18E3 A3             2270                        INC   DPTR                         ;18E3   A3

18E4 EF             2271                        MOV   A,R7                         ;18E4   EF

18E5 F0             2272                        MOVX  @DPTR,A                      ;18E5   F0

18E6 00             2273                        NOP                                ;18E6   00

18E7 00             2274                        NOP                                ;18E7   00

18E8 7F01           2275                        MOV   R7,#01H                      ;18E8   7F 01

18EA 12323A         2276                        LCALL Q323A                        ;18EA   12 32 3A

18ED A3             2277                        INC   DPTR                         ;18ED   A3

18EE EF             2278                        MOV   A,R7                         ;18EE   EF

18EF F0             2279                        MOVX  @DPTR,A                      ;18EF   F0

18F0 00             2280                        NOP                                ;18F0   00

18F1 00             2281                        NOP                                ;18F1   00

18F2 7F01           2282                        MOV   R7,#01H                      ;18F2   7F 01

18F4 12323A         2283                        LCALL Q323A                        ;18F4   12 32 3A

18F7 A3             2284                        INC   DPTR                         ;18F7   A3

18F8 EF             2285                        MOV   A,R7                         ;18F8   EF

18F9 F0             2286                        MOVX  @DPTR,A                      ;18F9   F0

18FA 00             2287                        NOP                                ;18FA   00

18FB 00             2288                        NOP                                ;18FB   00

A51 MACRO ASSEMBLER  __________V0_0                                                       12/04/2016 21:52:57 PAGE    43

18FC 7F01           2289                        MOV   R7,#01H                      ;18FC   7F 01

18FE 12323A         2290                        LCALL Q323A                        ;18FE   12 32 3A

1901 A3             2291                        INC   DPTR                         ;1901   A3

1902 EF             2292                        MOV   A,R7                         ;1902   EF

1903 F0             2293                        MOVX  @DPTR,A                      ;1903   F0

1904 00             2294                        NOP                                ;1904   00

1905 00             2295                        NOP                                ;1905   00

1906 7F01           2296                        MOV   R7,#01H                      ;1906   7F 01

1908 12323A         2297                        LCALL Q323A                        ;1908   12 32 3A

190B A3             2298                        INC   DPTR                         ;190B   A3

190C EF             2299                        MOV   A,R7                         ;190C   EF

190D F0             2300                        MOVX  @DPTR,A                      ;190D   F0

190E 00             2301                        NOP                                ;190E   00

190F 00             2302                        NOP                                ;190F   00

1910 7F01           2303                        MOV   R7,#01H                      ;1910   7F 01

1912 12323A         2304                        LCALL Q323A                        ;1912   12 32 3A

1915 A3             2305                        INC   DPTR                         ;1915   A3

1916 EF             2306                        MOV   A,R7                         ;1916   EF

1917 F0             2307                        MOVX  @DPTR,A                      ;1917   F0

1918 00             2308                        NOP                                ;1918   00

1919 00             2309                        NOP                                ;1919   00

191A 22             2310                        RET                                ;191A   22

                    2311     ;==========================================================================

191B E4             2312     Q191B:             CLR   A                            ;191B   E4

191C F526           2313                        MOV   26H,A                        ;191C   F5 26

191E F50C           2314                        MOV   0CH,A                        ;191E   F5 0C

1920 F50B           2315                        MOV   0BH,A                        ;1920   F5 0B

1922 F50A           2316                        MOV   0AH,A                        ;1922   F5 0A

1924 F509           2317                        MOV   09H,A                        ;1924   F5 09

1926 751008         2318                        MOV   10H,#08H                     ;1926   75 10 08

1929 751101         2319                        MOV   11H,#01H                     ;1929   75 11 01

192C F50D           2320                        MOV   0DH,A                        ;192C   F5 0D

192E F50E           2321                        MOV   0EH,A                        ;192E   F5 0E

1930 F51B           2322                        MOV   1BH,A                        ;1930   F5 1B

1932 F51C           2323                        MOV   1CH,A                        ;1932   F5 1C

1934 F513           2324                        MOV   13H,A                        ;1934   F5 13

1936 F514           2325                        MOV   14H,A                        ;1936   F5 14

1938 F517           2326                        MOV   17H,A                        ;1938   F5 17

193A F518           2327                        MOV   18H,A                        ;193A   F5 18

193C 751DC3         2328                        MOV   1DH,#0C3H                    ;193C   75 1D C3

193F 751E50         2329                        MOV   1EH,#50H                     ;193F   75 1E 50

1942 F515           2330                        MOV   15H,A                        ;1942   F5 15

1944 F516           2331                        MOV   16H,A                        ;1944   F5 16

1946 F512           2332                        MOV   12H,A                        ;1946   F5 12

1948 F50F           2333                        MOV   0FH,A                        ;1948   F5 0F

194A 752701         2334                        MOV   27H,#01H                     ;194A   75 27 01

194D 7524FE         2335                        MOV   24H,#0FEH                    ;194D   75 24 FE

1950 7525E3         2336                        MOV   25H,#0E3H                    ;1950   75 25 E3

1953 852721         2337                        MOV   21H,27H                      ;1953   85 27 21

1956 851022         2338                        MOV   22H,10H                      ;1956   85 10 22

1959 851123         2339                        MOV   23H,11H                      ;1959   85 11 23

195C 750855         2340                        MOV   08H,#55H                     ;195C   75 08 55

195F F593           2341                        MOV   93H,A                        ;195F   F5 93

1961 F594           2342                        MOV   94H,A                        ;1961   F5 94

1963 7591EE         2343                        MOV   91H,#0EEH                    ;1963   75 91 EE

1966 759211         2344                        MOV   92H,#11H                     ;1966   75 92 11

1969 F595           2345                        MOV   95H,A                        ;1969   F5 95

196B F596           2346                        MOV   96H,A                        ;196B   F5 96

196D F5B1           2347                        MOV   0B1H,A                       ;196D   F5 B1

196F F5B2           2348                        MOV   0B2H,A                       ;196F   F5 B2

1971 123037         2349                        LCALL Q3037                        ;1971   12 30 37

1974 752F07         2350                        MOV   2FH,#07H                     ;1974   75 2F 07

1977 7530FF         2351                        MOV   30H,#0FFH                    ;1977   75 30 FF

197A 753125         2352                        MOV   31H,#25H                     ;197A   75 31 25

197D 753286         2353                        MOV   32H,#86H                     ;197D   75 32 86

1980 7B10           2354                        MOV   R3,#10H                      ;1980   7B 10

A51 MACRO ASSEMBLER  __________V0_0                                                       12/04/2016 21:52:57 PAGE    44

1982 7D08           2355                        MOV   R5,#08H                      ;1982   7D 08

1984 7F01           2356                        MOV   R7,#01H                      ;1984   7F 01

1986 122DC4         2357                        LCALL Q2DC4                        ;1986   12 2D C4

1989 7BFF           2358                        MOV   R3,#0FFH                     ;1989   7B FF

198B 7A25           2359                        MOV   R2,#25H                      ;198B   7A 25

198D 7972           2360                        MOV   R1,#72H                      ;198D   79 72

198F 7D10           2361                        MOV   R5,#10H                      ;198F   7D 10

1991 7F03           2362                        MOV   R7,#03H                      ;1991   7F 03

1993 1230C9         2363                        LCALL Q30C9                        ;1993   12 30 C9

1996 752F09         2364                        MOV   2FH,#09H                     ;1996   75 2F 09

1999 7530FF         2365                        MOV   30H,#0FFH                    ;1999   75 30 FF

199C 753127         2366                        MOV   31H,#27H                     ;199C   75 31 27

199F 75324A         2367                        MOV   32H,#4AH                     ;199F   75 32 4A

19A2 7B0C           2368                        MOV   R3,#0CH                      ;19A2   7B 0C

19A4 7D0A           2369                        MOV   R5,#0AH                      ;19A4   7D 0A

19A6 7F05           2370                        MOV   R7,#05H                      ;19A6   7F 05

19A8 122DC4         2371                        LCALL Q2DC4                        ;19A8   12 2D C4

19AB 123275         2372                        LCALL Q3275                        ;19AB   12 32 75

19AE 123198         2373                        LCALL Q3198                        ;19AE   12 31 98

19B1 1231BD         2374                        LCALL Q31BD                        ;19B1   12 31 BD

19B4 752801         2375                        MOV   28H,#01H                     ;19B4   75 28 01

19B7 7529F4         2376                        MOV   29H,#0F4H                    ;19B7   75 29 F4

19BA 752A13         2377     Q19BA:             MOV   2AH,#13H                     ;19BA   75 2A 13

19BD 752B88         2378                        MOV   2BH,#88H                     ;19BD   75 2B 88

19C0 E52B           2379     Q19C0:             MOV   A,2BH                        ;19C0   E5 2B

19C2 152B           2380                        DEC   2BH                          ;19C2   15 2B

19C4 7002           2381                        JNZ   Q19C8                        ;19C4   70 02

19C6 152A           2382                        DEC   2AH                          ;19C6   15 2A

19C8 E52B           2383     Q19C8:             MOV   A,2BH                        ;19C8   E5 2B

19CA 452A           2384                        ORL   A,2AH                        ;19CA   45 2A

19CC 70F2           2385                        JNZ   Q19C0                        ;19CC   70 F2

19CE E529           2386                        MOV   A,29H                        ;19CE   E5 29

19D0 1529           2387                        DEC   29H                          ;19D0   15 29

19D2 7002           2388                        JNZ   Q19D6                        ;19D2   70 02

19D4 1528           2389                        DEC   28H                          ;19D4   15 28

19D6 E529           2390     Q19D6:             MOV   A,29H                        ;19D6   E5 29

19D8 4528           2391                        ORL   A,28H                        ;19D8   45 28

19DA 70DE           2392                        JNZ   Q19BA                        ;19DA   70 DE

19DC 7B00           2393                        MOV   R3,#00H                      ;19DC   7B 00

19DE 7A00           2394                        MOV   R2,#00H                      ;19DE   7A 00

19E0 7921           2395                        MOV   R1,#21H                      ;19E0   79 21

19E2 7D03           2396                        MOV   R5,#03H                      ;19E2   7D 03

19E4 E4             2397                        CLR   A                            ;19E4   E4

19E5 FF             2398                        MOV   R7,A                         ;19E5   FF

19E6 FE             2399                        MOV   R6,A                         ;19E6   FE

19E7 123140         2400                        LCALL Q3140                        ;19E7   12 31 40

19EA E521           2401                        MOV   A,21H                        ;19EA   E5 21

19EC C3             2402                        CLR   C                            ;19EC   C3

19ED 9400           2403                        SUBB  A,#00H                       ;19ED   94 00

19EF 402C           2404                        JC    Q1A1D                        ;19EF   40 2C

19F1 E521           2405                        MOV   A,21H                        ;19F1   E5 21

19F3 D3             2406                        SETB  C                            ;19F3   D3

19F4 9402           2407                        SUBB  A,#02H                       ;19F4   94 02

19F6 5025           2408                        JNC   Q1A1D                        ;19F6   50 25

19F8 E522           2409                        MOV   A,22H                        ;19F8   E5 22

19FA C3             2410                        CLR   C                            ;19FA   C3

19FB 9403           2411                        SUBB  A,#03H                       ;19FB   94 03

19FD 401E           2412                        JC    Q1A1D                        ;19FD   40 1E

19FF E522           2413                        MOV   A,22H                        ;19FF   E5 22

1A01 D3             2414                        SETB  C                            ;1A01   D3

1A02 9410           2415                        SUBB  A,#10H                       ;1A02   94 10

1A04 5017           2416                        JNC   Q1A1D                        ;1A04   50 17

1A06 E523           2417                        MOV   A,23H                        ;1A06   E5 23

1A08 C3             2418                        CLR   C                            ;1A08   C3

1A09 9401           2419                        SUBB  A,#01H                       ;1A09   94 01

1A0B 4010           2420                        JC    Q1A1D                        ;1A0B   40 10

A51 MACRO ASSEMBLER  __________V0_0                                                       12/04/2016 21:52:57 PAGE    45

1A0D E523           2421                        MOV   A,23H                        ;1A0D   E5 23

1A0F D3             2422                        SETB  C                            ;1A0F   D3

1A10 9403           2423                        SUBB  A,#03H                       ;1A10   94 03

1A12 5009           2424                        JNC   Q1A1D                        ;1A12   50 09

1A14 852127         2425                        MOV   27H,21H                      ;1A14   85 21 27

1A17 852210         2426                        MOV   10H,22H                      ;1A17   85 22 10

1A1A 852311         2427                        MOV   11H,23H                      ;1A1A   85 23 11

1A1D 752801         2428     Q1A1D:             MOV   28H,#01H                     ;1A1D   75 28 01

1A20 7529F4         2429                        MOV   29H,#0F4H                    ;1A20   75 29 F4

1A23 752A13         2430     Q1A23:             MOV   2AH,#13H                     ;1A23   75 2A 13

1A26 752B88         2431                        MOV   2BH,#88H                     ;1A26   75 2B 88

1A29 E52B           2432     Q1A29:             MOV   A,2BH                        ;1A29   E5 2B

1A2B 152B           2433                        DEC   2BH                          ;1A2B   15 2B

1A2D 7002           2434                        JNZ   Q1A31                        ;1A2D   70 02

1A2F 152A           2435                        DEC   2AH                          ;1A2F   15 2A

1A31 E52B           2436     Q1A31:             MOV   A,2BH                        ;1A31   E5 2B

1A33 452A           2437                        ORL   A,2AH                        ;1A33   45 2A

1A35 70F2           2438                        JNZ   Q1A29                        ;1A35   70 F2

1A37 E529           2439                        MOV   A,29H                        ;1A37   E5 29

1A39 1529           2440                        DEC   29H                          ;1A39   15 29

1A3B 7002           2441                        JNZ   Q1A3F                        ;1A3B   70 02

1A3D 1528           2442                        DEC   28H                          ;1A3D   15 28

1A3F E529           2443     Q1A3F:             MOV   A,29H                        ;1A3F   E5 29

1A41 4528           2444                        ORL   A,28H                        ;1A41   45 28

1A43 70DE           2445                        JNZ   Q1A23                        ;1A43   70 DE

1A45 AF27           2446                        MOV   R7,27H                       ;1A45   AF 27

1A47 122F87         2447                        LCALL Q2F87                        ;1A47   12 2F 87

1A4A 122A55         2448                        LCALL Q2A55                        ;1A4A   12 2A 55

1A4D E512           2449     Q1A4D:             MOV   A,12H                        ;1A4D   E5 12

1A4F 6003           2450                        JZ    Q1A54                        ;1A4F   60 03

1A51 021C5B         2451                        LJMP  Q1C5B                        ;1A51   02 1C 5B

                    2452     ;==========================================================================

1A54 E510           2453     Q1A54:             MOV   A,10H                        ;1A54   E5 10

1A56 24FD           2454                        ADD   A,#0FDH                      ;1A56   24 FD

1A58 24F9           2455                        ADD   A,#0F9H                      ;1A58   24 F9

1A5A 5011           2456                        JNC   Q1A6D                        ;1A5A   50 11

1A5C 605A           2457                        JZ    Q1AB8                        ;1A5C   60 5A

1A5E 14             2458                        DEC   A                            ;1A5E   14

1A5F 7003           2459                        JNZ   Q1A64                        ;1A5F   70 03

1A61 021AEA         2460                        LJMP  Q1AEA                        ;1A61   02 1A EA

                    2461     ;==========================================================================

1A64 14             2462     Q1A64:             DEC   A                            ;1A64   14

1A65 7003           2463                        JNZ   Q1A6A                        ;1A65   70 03

1A67 021B58         2464                        LJMP  Q1B58                        ;1A67   02 1B 58

                    2465     ;==========================================================================

1A6A 021C5B         2466     Q1A6A:             LJMP  Q1C5B                        ;1A6A   02 1C 5B

                    2467     ;==========================================================================

1A6D D28C           2468     Q1A6D:             SETB  TR0                          ;1A6D   D2 8C

1A6F D2A9           2469                        SETB  ET0                          ;1A6F   D2 A9

1A71 C3             2470                        CLR   C                            ;1A71   C3

1A72 E50E           2471                        MOV   A,0EH                        ;1A72   E5 0E

1A74 94FF           2472                        SUBB  A,#0FFH                      ;1A74   94 FF

1A76 E50D           2473                        MOV   A,0DH                        ;1A76   E5 0D

1A78 9401           2474                        SUBB  A,#01H                       ;1A78   94 01

1A7A 5003           2475                        JNC   Q1A7F                        ;1A7A   50 03

1A7C 021C5B         2476                        LJMP  Q1C5B                        ;1A7C   02 1C 5B

                    2477     ;==========================================================================

1A7F E4             2478     Q1A7F:             CLR   A                            ;1A7F   E4

1A80 F528           2479                        MOV   28H,A                        ;1A80   F5 28

1A82 F529           2480                        MOV   29H,A                        ;1A82   F5 29

1A84 7400           2481     Q1A84:             MOV   A,#00H                       ;1A84   74 00

1A86 2529           2482                        ADD   A,29H                        ;1A86   25 29

1A88 F582           2483                        MOV   DPL,A                        ;1A88   F5 82

1A8A 7402           2484                        MOV   A,#02H                       ;1A8A   74 02

1A8C 3528           2485                        ADDC  A,28H                        ;1A8C   35 28

1A8E F583           2486                        MOV   DPH,A                        ;1A8E   F5 83

A51 MACRO ASSEMBLER  __________V0_0                                                       12/04/2016 21:52:57 PAGE    46

1A90 E0             2487                        MOVX  A,@DPTR                      ;1A90   E0

1A91 FF             2488                        MOV   R7,A                         ;1A91   FF

1A92 7400           2489                        MOV   A,#00H                       ;1A92   74 00

1A94 2529           2490                        ADD   A,29H                        ;1A94   25 29

1A96 F582           2491                        MOV   DPL,A                        ;1A96   F5 82

1A98 7400           2492                        MOV   A,#00H                       ;1A98   74 00

1A9A 3528           2493                        ADDC  A,28H                        ;1A9A   35 28

1A9C F583           2494                        MOV   DPH,A                        ;1A9C   F5 83

1A9E EF             2495                        MOV   A,R7                         ;1A9E   EF

1A9F F0             2496                        MOVX  @DPTR,A                      ;1A9F   F0

1AA0 0529           2497                        INC   29H                          ;1AA0   05 29

1AA2 E529           2498                        MOV   A,29H                        ;1AA2   E5 29

1AA4 7002           2499                        JNZ   Q1AA8                        ;1AA4   70 02

1AA6 0528           2500                        INC   28H                          ;1AA6   05 28

1AA8 B400D9         2501     Q1AA8:             CJNE  A,#00H,Q1A84                 ;1AA8   B4 00 D9

1AAB E528           2502                        MOV   A,28H                        ;1AAB   E5 28

1AAD B402D4         2503                        CJNE  A,#02H,Q1A84                 ;1AAD   B4 02 D4

1AB0 E4             2504                        CLR   A                            ;1AB0   E4

1AB1 F50D           2505                        MOV   0DH,A                        ;1AB1   F5 0D

1AB3 F50E           2506                        MOV   0EH,A                        ;1AB3   F5 0E

1AB5 021C58         2507                        LJMP  Q1C58                        ;1AB5   02 1C 58

                    2508     ;==========================================================================

1AB8 C28C           2509     Q1AB8:             CLR   TR0                          ;1AB8   C2 8C

1ABA C2A9           2510                        CLR   ET0                          ;1ABA   C2 A9

1ABC E4             2511                        CLR   A                            ;1ABC   E4

1ABD F528           2512                        MOV   28H,A                        ;1ABD   F5 28

1ABF F529           2513                        MOV   29H,A                        ;1ABF   F5 29

1AC1 7F01           2514     Q1AC1:             MOV   R7,#01H                      ;1AC1   7F 01

1AC3 12323A         2515                        LCALL Q323A                        ;1AC3   12 32 3A

1AC6 7400           2516                        MOV   A,#00H                       ;1AC6   74 00

1AC8 2529           2517                        ADD   A,29H                        ;1AC8   25 29

1ACA F582           2518                        MOV   DPL,A                        ;1ACA   F5 82

1ACC 7400           2519                        MOV   A,#00H                       ;1ACC   74 00

1ACE 3528           2520                        ADDC  A,28H                        ;1ACE   35 28

1AD0 F583           2521                        MOV   DPH,A                        ;1AD0   F5 83

1AD2 EF             2522                        MOV   A,R7                         ;1AD2   EF

1AD3 F0             2523                        MOVX  @DPTR,A                      ;1AD3   F0

1AD4 00             2524                        NOP                                ;1AD4   00

1AD5 00             2525                        NOP                                ;1AD5   00

1AD6 00             2526                        NOP                                ;1AD6   00

1AD7 00             2527                        NOP                                ;1AD7   00

1AD8 0529           2528                        INC   29H                          ;1AD8   05 29

1ADA E529           2529                        MOV   A,29H                        ;1ADA   E5 29

1ADC 7002           2530                        JNZ   Q1AE0                        ;1ADC   70 02

1ADE 0528           2531                        INC   28H                          ;1ADE   05 28

1AE0 C3             2532     Q1AE0:             CLR   C                            ;1AE0   C3

1AE1 E528           2533                        MOV   A,28H                        ;1AE1   E5 28

1AE3 9402           2534                        SUBB  A,#02H                       ;1AE3   94 02

1AE5 40DA           2535                        JC    Q1AC1                        ;1AE5   40 DA

1AE7 021C58         2536                        LJMP  Q1C58                        ;1AE7   02 1C 58

                    2537     ;==========================================================================

1AEA C28C           2538     Q1AEA:             CLR   TR0                          ;1AEA   C2 8C

1AEC C2A9           2539                        CLR   ET0                          ;1AEC   C2 A9

1AEE 120F04         2540                        LCALL Q0F04                        ;1AEE   12 0F 04

1AF1 E4             2541                        CLR   A                            ;1AF1   E4

1AF2 F528           2542                        MOV   28H,A                        ;1AF2   F5 28

1AF4 F529           2543                        MOV   29H,A                        ;1AF4   F5 29

1AF6 E529           2544     Q1AF6:             MOV   A,29H                        ;1AF6   E5 29

1AF8 20E014         2545                        JB    ACC.0,Q1B0F                  ;1AF8   20 E0 14

1AFB E528           2546                        MOV   A,28H                        ;1AFB   E5 28

1AFD C3             2547                        CLR   C                            ;1AFD   C3

1AFE 13             2548                        RRC   A                            ;1AFE   13

1AFF FE             2549                        MOV   R6,A                         ;1AFF   FE

1B00 E529           2550                        MOV   A,29H                        ;1B00   E5 29

1B02 13             2551                        RRC   A                            ;1B02   13

1B03 2400           2552                        ADD   A,#00H                       ;1B03   24 00

A51 MACRO ASSEMBLER  __________V0_0                                                       12/04/2016 21:52:57 PAGE    47

1B05 F582           2553                        MOV   DPL,A                        ;1B05   F5 82

1B07 7402           2554                        MOV   A,#02H                       ;1B07   74 02

1B09 3E             2555                        ADDC  A,R6                         ;1B09   3E

1B0A F583           2556                        MOV   DPH,A                        ;1B0A   F5 83

1B0C E0             2557                        MOVX  A,@DPTR                      ;1B0C   E0

1B0D 8027           2558                        SJMP  Q1B36                        ;1B0D   80 27

1B0F E528           2559     Q1B0F:             MOV   A,28H                        ;1B0F   E5 28

1B11 C3             2560                        CLR   C                            ;1B11   C3

1B12 13             2561                        RRC   A                            ;1B12   13

1B13 FE             2562                        MOV   R6,A                         ;1B13   FE

1B14 E529           2563                        MOV   A,29H                        ;1B14   E5 29

1B16 13             2564                        RRC   A                            ;1B16   13

1B17 FF             2565                        MOV   R7,A                         ;1B17   FF

1B18 2401           2566                        ADD   A,#01H                       ;1B18   24 01

1B1A F582           2567                        MOV   DPL,A                        ;1B1A   F5 82

1B1C 7402           2568                        MOV   A,#02H                       ;1B1C   74 02

1B1E 3E             2569                        ADDC  A,R6                         ;1B1E   3E

1B1F F583           2570                        MOV   DPH,A                        ;1B1F   F5 83

1B21 E0             2571                        MOVX  A,@DPTR                      ;1B21   E0

1B22 FD             2572                        MOV   R5,A                         ;1B22   FD

1B23 7400           2573                        MOV   A,#00H                       ;1B23   74 00

1B25 2F             2574                        ADD   A,R7                         ;1B25   2F

1B26 F582           2575                        MOV   DPL,A                        ;1B26   F5 82

1B28 7402           2576                        MOV   A,#02H                       ;1B28   74 02

1B2A 3E             2577                        ADDC  A,R6                         ;1B2A   3E

1B2B F583           2578                        MOV   DPH,A                        ;1B2B   F5 83

1B2D E0             2579                        MOVX  A,@DPTR                      ;1B2D   E0

1B2E 2D             2580                        ADD   A,R5                         ;1B2E   2D

1B2F FF             2581                        MOV   R7,A                         ;1B2F   FF

1B30 E4             2582                        CLR   A                            ;1B30   E4

1B31 33             2583                        RLC   A                            ;1B31   33

1B32 C3             2584                        CLR   C                            ;1B32   C3

1B33 13             2585                        RRC   A                            ;1B33   13

1B34 EF             2586                        MOV   A,R7                         ;1B34   EF

1B35 13             2587                        RRC   A                            ;1B35   13

1B36 FF             2588     Q1B36:             MOV   R7,A                         ;1B36   FF

1B37 7400           2589                        MOV   A,#00H                       ;1B37   74 00

1B39 2529           2590                        ADD   A,29H                        ;1B39   25 29

1B3B F582           2591                        MOV   DPL,A                        ;1B3B   F5 82

1B3D 7400           2592                        MOV   A,#00H                       ;1B3D   74 00

1B3F 3528           2593                        ADDC  A,28H                        ;1B3F   35 28

1B41 F583           2594                        MOV   DPH,A                        ;1B41   F5 83

1B43 EF             2595                        MOV   A,R7                         ;1B43   EF

1B44 F0             2596                        MOVX  @DPTR,A                      ;1B44   F0

1B45 0529           2597                        INC   29H                          ;1B45   05 29

1B47 E529           2598                        MOV   A,29H                        ;1B47   E5 29

1B49 7002           2599                        JNZ   Q1B4D                        ;1B49   70 02

1B4B 0528           2600                        INC   28H                          ;1B4B   05 28

1B4D B400A6         2601     Q1B4D:             CJNE  A,#00H,Q1AF6                 ;1B4D   B4 00 A6

1B50 E528           2602                        MOV   A,28H                        ;1B50   E5 28

1B52 B402A1         2603                        CJNE  A,#02H,Q1AF6                 ;1B52   B4 02 A1

1B55 021C58         2604                        LJMP  Q1C58                        ;1B55   02 1C 58

                    2605     ;==========================================================================

1B58 C28C           2606     Q1B58:             CLR   TR0                          ;1B58   C2 8C

1B5A C2A9           2607                        CLR   ET0                          ;1B5A   C2 A9

1B5C 120F04         2608                        LCALL Q0F04                        ;1B5C   12 0F 04

1B5F E4             2609                        CLR   A                            ;1B5F   E4

1B60 F528           2610                        MOV   28H,A                        ;1B60   F5 28

1B62 F529           2611                        MOV   29H,A                        ;1B62   F5 29

1B64 E529           2612     Q1B64:             MOV   A,29H                        ;1B64   E5 29

1B66 20E014         2613                        JB    ACC.0,Q1B7D                  ;1B66   20 E0 14

1B69 E528           2614                        MOV   A,28H                        ;1B69   E5 28

1B6B C3             2615                        CLR   C                            ;1B6B   C3

1B6C 13             2616                        RRC   A                            ;1B6C   13

1B6D FE             2617                        MOV   R6,A                         ;1B6D   FE

1B6E E529           2618                        MOV   A,29H                        ;1B6E   E5 29

A51 MACRO ASSEMBLER  __________V0_0                                                       12/04/2016 21:52:57 PAGE    48

1B70 13             2619                        RRC   A                            ;1B70   13

1B71 2400           2620                        ADD   A,#00H                       ;1B71   24 00

1B73 F582           2621                        MOV   DPL,A                        ;1B73   F5 82

1B75 7402           2622                        MOV   A,#02H                       ;1B75   74 02

1B77 3E             2623                        ADDC  A,R6                         ;1B77   3E

1B78 F583           2624                        MOV   DPH,A                        ;1B78   F5 83

1B7A E0             2625                        MOVX  A,@DPTR                      ;1B7A   E0

1B7B 8027           2626                        SJMP  Q1BA4                        ;1B7B   80 27

1B7D E528           2627     Q1B7D:             MOV   A,28H                        ;1B7D   E5 28

1B7F C3             2628                        CLR   C                            ;1B7F   C3

1B80 13             2629                        RRC   A                            ;1B80   13

1B81 FE             2630                        MOV   R6,A                         ;1B81   FE

1B82 E529           2631                        MOV   A,29H                        ;1B82   E5 29

1B84 13             2632                        RRC   A                            ;1B84   13

1B85 FF             2633                        MOV   R7,A                         ;1B85   FF

1B86 2401           2634                        ADD   A,#01H                       ;1B86   24 01

1B88 F582           2635                        MOV   DPL,A                        ;1B88   F5 82

1B8A 7402           2636                        MOV   A,#02H                       ;1B8A   74 02

1B8C 3E             2637                        ADDC  A,R6                         ;1B8C   3E

1B8D F583           2638                        MOV   DPH,A                        ;1B8D   F5 83

1B8F E0             2639                        MOVX  A,@DPTR                      ;1B8F   E0

1B90 FD             2640                        MOV   R5,A                         ;1B90   FD

1B91 7400           2641                        MOV   A,#00H                       ;1B91   74 00

1B93 2F             2642                        ADD   A,R7                         ;1B93   2F

1B94 F582           2643                        MOV   DPL,A                        ;1B94   F5 82

1B96 7402           2644                        MOV   A,#02H                       ;1B96   74 02

1B98 3E             2645                        ADDC  A,R6                         ;1B98   3E

1B99 F583           2646                        MOV   DPH,A                        ;1B99   F5 83

1B9B E0             2647                        MOVX  A,@DPTR                      ;1B9B   E0

1B9C 2D             2648                        ADD   A,R5                         ;1B9C   2D

1B9D FF             2649                        MOV   R7,A                         ;1B9D   FF

1B9E E4             2650                        CLR   A                            ;1B9E   E4

1B9F 33             2651                        RLC   A                            ;1B9F   33

1BA0 C3             2652                        CLR   C                            ;1BA0   C3

1BA1 13             2653                        RRC   A                            ;1BA1   13

1BA2 EF             2654                        MOV   A,R7                         ;1BA2   EF

1BA3 13             2655                        RRC   A                            ;1BA3   13

1BA4 FF             2656     Q1BA4:             MOV   R7,A                         ;1BA4   FF

1BA5 7400           2657                        MOV   A,#00H                       ;1BA5   74 00

1BA7 2529           2658                        ADD   A,29H                        ;1BA7   25 29

1BA9 F582           2659                        MOV   DPL,A                        ;1BA9   F5 82

1BAB 7400           2660                        MOV   A,#00H                       ;1BAB   74 00

1BAD 3528           2661                        ADDC  A,28H                        ;1BAD   35 28

1BAF F583           2662                        MOV   DPH,A                        ;1BAF   F5 83

1BB1 EF             2663                        MOV   A,R7                         ;1BB1   EF

1BB2 F0             2664                        MOVX  @DPTR,A                      ;1BB2   F0

1BB3 0529           2665                        INC   29H                          ;1BB3   05 29

1BB5 E529           2666                        MOV   A,29H                        ;1BB5   E5 29

1BB7 7002           2667                        JNZ   Q1BBB                        ;1BB7   70 02

1BB9 0528           2668                        INC   28H                          ;1BB9   05 28

1BBB B400A6         2669     Q1BBB:             CJNE  A,#00H,Q1B64                 ;1BBB   B4 00 A6

1BBE E528           2670                        MOV   A,28H                        ;1BBE   E5 28

1BC0 B402A1         2671                        CJNE  A,#02H,Q1B64                 ;1BC0   B4 02 A1

1BC3 E4             2672                        CLR   A                            ;1BC3   E4

1BC4 F528           2673                        MOV   28H,A                        ;1BC4   F5 28

1BC6 F529           2674                        MOV   29H,A                        ;1BC6   F5 29

1BC8 7400           2675     Q1BC8:             MOV   A,#00H                       ;1BC8   74 00

1BCA 2529           2676                        ADD   A,29H                        ;1BCA   25 29

1BCC F582           2677                        MOV   DPL,A                        ;1BCC   F5 82

1BCE 7400           2678                        MOV   A,#00H                       ;1BCE   74 00

1BD0 3528           2679                        ADDC  A,28H                        ;1BD0   35 28

1BD2 F583           2680                        MOV   DPH,A                        ;1BD2   F5 83

1BD4 E0             2681                        MOVX  A,@DPTR                      ;1BD4   E0

1BD5 FF             2682                        MOV   R7,A                         ;1BD5   FF

1BD6 7400           2683                        MOV   A,#00H                       ;1BD6   74 00

1BD8 2529           2684                        ADD   A,29H                        ;1BD8   25 29

A51 MACRO ASSEMBLER  __________V0_0                                                       12/04/2016 21:52:57 PAGE    49

1BDA F582           2685                        MOV   DPL,A                        ;1BDA   F5 82

1BDC 7402           2686                        MOV   A,#02H                       ;1BDC   74 02

1BDE 3528           2687                        ADDC  A,28H                        ;1BDE   35 28

1BE0 F583           2688                        MOV   DPH,A                        ;1BE0   F5 83

1BE2 EF             2689                        MOV   A,R7                         ;1BE2   EF

1BE3 F0             2690                        MOVX  @DPTR,A                      ;1BE3   F0

1BE4 0529           2691                        INC   29H                          ;1BE4   05 29

1BE6 E529           2692                        MOV   A,29H                        ;1BE6   E5 29

1BE8 7002           2693                        JNZ   Q1BEC                        ;1BE8   70 02

1BEA 0528           2694                        INC   28H                          ;1BEA   05 28

1BEC B400D9         2695     Q1BEC:             CJNE  A,#00H,Q1BC8                 ;1BEC   B4 00 D9

1BEF E528           2696                        MOV   A,28H                        ;1BEF   E5 28

1BF1 B402D4         2697                        CJNE  A,#02H,Q1BC8                 ;1BF1   B4 02 D4

1BF4 E4             2698                        CLR   A                            ;1BF4   E4

1BF5 F528           2699                        MOV   28H,A                        ;1BF5   F5 28

1BF7 F529           2700                        MOV   29H,A                        ;1BF7   F5 29

1BF9 E529           2701     Q1BF9:             MOV   A,29H                        ;1BF9   E5 29

1BFB 20E014         2702                        JB    ACC.0,Q1C12                  ;1BFB   20 E0 14

1BFE E528           2703                        MOV   A,28H                        ;1BFE   E5 28

1C00 C3             2704                        CLR   C                            ;1C00   C3

1C01 13             2705                        RRC   A                            ;1C01   13

1C02 FE             2706                        MOV   R6,A                         ;1C02   FE

1C03 E529           2707                        MOV   A,29H                        ;1C03   E5 29

1C05 13             2708                        RRC   A                            ;1C05   13

1C06 2400           2709                        ADD   A,#00H                       ;1C06   24 00

1C08 F582           2710                        MOV   DPL,A                        ;1C08   F5 82

1C0A 7402           2711                        MOV   A,#02H                       ;1C0A   74 02

1C0C 3E             2712                        ADDC  A,R6                         ;1C0C   3E

1C0D F583           2713                        MOV   DPH,A                        ;1C0D   F5 83

1C0F E0             2714                        MOVX  A,@DPTR                      ;1C0F   E0

1C10 8027           2715                        SJMP  Q1C39                        ;1C10   80 27

1C12 E528           2716     Q1C12:             MOV   A,28H                        ;1C12   E5 28

1C14 C3             2717                        CLR   C                            ;1C14   C3

1C15 13             2718                        RRC   A                            ;1C15   13

1C16 FE             2719                        MOV   R6,A                         ;1C16   FE

1C17 E529           2720                        MOV   A,29H                        ;1C17   E5 29

1C19 13             2721                        RRC   A                            ;1C19   13

1C1A FF             2722                        MOV   R7,A                         ;1C1A   FF

1C1B 2401           2723                        ADD   A,#01H                       ;1C1B   24 01

1C1D F582           2724                        MOV   DPL,A                        ;1C1D   F5 82

1C1F 7402           2725                        MOV   A,#02H                       ;1C1F   74 02

1C21 3E             2726                        ADDC  A,R6                         ;1C21   3E

1C22 F583           2727                        MOV   DPH,A                        ;1C22   F5 83

1C24 E0             2728                        MOVX  A,@DPTR                      ;1C24   E0

1C25 FD             2729                        MOV   R5,A                         ;1C25   FD

1C26 7400           2730                        MOV   A,#00H                       ;1C26   74 00

1C28 2F             2731                        ADD   A,R7                         ;1C28   2F

1C29 F582           2732                        MOV   DPL,A                        ;1C29   F5 82

1C2B 7402           2733                        MOV   A,#02H                       ;1C2B   74 02

1C2D 3E             2734                        ADDC  A,R6                         ;1C2D   3E

1C2E F583           2735                        MOV   DPH,A                        ;1C2E   F5 83

1C30 E0             2736                        MOVX  A,@DPTR                      ;1C30   E0

1C31 2D             2737                        ADD   A,R5                         ;1C31   2D

1C32 FF             2738                        MOV   R7,A                         ;1C32   FF

1C33 E4             2739                        CLR   A                            ;1C33   E4

1C34 33             2740                        RLC   A                            ;1C34   33

1C35 C3             2741                        CLR   C                            ;1C35   C3

1C36 13             2742                        RRC   A                            ;1C36   13

1C37 EF             2743                        MOV   A,R7                         ;1C37   EF

1C38 13             2744                        RRC   A                            ;1C38   13

1C39 FF             2745     Q1C39:             MOV   R7,A                         ;1C39   FF

1C3A 7400           2746                        MOV   A,#00H                       ;1C3A   74 00

1C3C 2529           2747                        ADD   A,29H                        ;1C3C   25 29

1C3E F582           2748                        MOV   DPL,A                        ;1C3E   F5 82

1C40 7400           2749                        MOV   A,#00H                       ;1C40   74 00

1C42 3528           2750                        ADDC  A,28H                        ;1C42   35 28

A51 MACRO ASSEMBLER  __________V0_0                                                       12/04/2016 21:52:57 PAGE    50

1C44 F583           2751                        MOV   DPH,A                        ;1C44   F5 83

1C46 EF             2752                        MOV   A,R7                         ;1C46   EF

1C47 F0             2753                        MOVX  @DPTR,A                      ;1C47   F0

1C48 0529           2754                        INC   29H                          ;1C48   05 29

1C4A E529           2755                        MOV   A,29H                        ;1C4A   E5 29

1C4C 7002           2756                        JNZ   Q1C50                        ;1C4C   70 02

1C4E 0528           2757                        INC   28H                          ;1C4E   05 28

1C50 B400A6         2758     Q1C50:             CJNE  A,#00H,Q1BF9                 ;1C50   B4 00 A6

1C53 E528           2759                        MOV   A,28H                        ;1C53   E5 28

1C55 B402A1         2760                        CJNE  A,#02H,Q1BF9                 ;1C55   B4 02 A1

1C58 752601         2761     Q1C58:             MOV   26H,#01H                     ;1C58   75 26 01

1C5B E526           2762     Q1C5B:             MOV   A,26H                        ;1C5B   E5 26

1C5D 6401           2763                        XRL   A,#01H                       ;1C5D   64 01

1C5F 6003           2764                        JZ    Q1C64                        ;1C5F   60 03

1C61 021CF9         2765                        LJMP  Q1CF9                        ;1C61   02 1C F9

                    2766     ;==========================================================================

1C64 E512           2767     Q1C64:             MOV   A,12H                        ;1C64   E5 12

1C66 6003           2768                        JZ    Q1C6B                        ;1C66   60 03

1C68 021CF9         2769                        LJMP  Q1CF9                        ;1C68   02 1C F9

                    2770     ;==========================================================================

1C6B F528           2771     Q1C6B:             MOV   28H,A                        ;1C6B   F5 28

1C6D 752902         2772                        MOV   29H,#02H                     ;1C6D   75 29 02

1C70 74FE           2773     Q1C70:             MOV   A,#0FEH                      ;1C70   74 FE

1C72 2529           2774                        ADD   A,29H                        ;1C72   25 29

1C74 F582           2775                        MOV   DPL,A                        ;1C74   F5 82

1C76 74FF           2776                        MOV   A,#0FFH                      ;1C76   74 FF

1C78 3528           2777                        ADDC  A,28H                        ;1C78   35 28

1C7A F583           2778                        MOV   DPH,A                        ;1C7A   F5 83

1C7C E0             2779                        MOVX  A,@DPTR                      ;1C7C   E0

1C7D 2481           2780                        ADD   A,#81H                       ;1C7D   24 81

1C7F E4             2781                        CLR   A                            ;1C7F   E4

1C80 34FF           2782                        ADDC  A,#0FFH                      ;1C80   34 FF

1C82 C3             2783                        CLR   C                            ;1C82   C3

1C83 6480           2784                        XRL   A,#80H                       ;1C83   64 80

1C85 9480           2785                        SUBB  A,#80H                       ;1C85   94 80

1C87 505F           2786                        JNC   Q1CE8                        ;1C87   50 5F

1C89 74FF           2787                        MOV   A,#0FFH                      ;1C89   74 FF

1C8B 2529           2788                        ADD   A,29H                        ;1C8B   25 29

1C8D F582           2789                        MOV   DPL,A                        ;1C8D   F5 82

1C8F 74FF           2790                        MOV   A,#0FFH                      ;1C8F   74 FF

1C91 3528           2791                        ADDC  A,28H                        ;1C91   35 28

1C93 F583           2792                        MOV   DPH,A                        ;1C93   F5 83

1C95 E0             2793                        MOVX  A,@DPTR                      ;1C95   E0

1C96 2481           2794                        ADD   A,#81H                       ;1C96   24 81

1C98 E4             2795                        CLR   A                            ;1C98   E4

1C99 34FF           2796                        ADDC  A,#0FFH                      ;1C99   34 FF

1C9B C3             2797                        CLR   C                            ;1C9B   C3

1C9C 6480           2798                        XRL   A,#80H                       ;1C9C   64 80

1C9E 9480           2799                        SUBB  A,#80H                       ;1C9E   94 80

1CA0 5046           2800                        JNC   Q1CE8                        ;1CA0   50 46

1CA2 7401           2801                        MOV   A,#01H                       ;1CA2   74 01

1CA4 2529           2802                        ADD   A,29H                        ;1CA4   25 29

1CA6 F582           2803                        MOV   DPL,A                        ;1CA6   F5 82

1CA8 7400           2804                        MOV   A,#00H                       ;1CA8   74 00

1CAA 3528           2805                        ADDC  A,28H                        ;1CAA   35 28

1CAC F583           2806                        MOV   DPH,A                        ;1CAC   F5 83

1CAE E0             2807                        MOVX  A,@DPTR                      ;1CAE   E0

1CAF 2481           2808                        ADD   A,#81H                       ;1CAF   24 81

1CB1 FF             2809                        MOV   R7,A                         ;1CB1   FF

1CB2 E4             2810                        CLR   A                            ;1CB2   E4

1CB3 34FF           2811                        ADDC  A,#0FFH                      ;1CB3   34 FF

1CB5 FE             2812                        MOV   R6,A                         ;1CB5   FE

1CB6 D3             2813                        SETB  C                            ;1CB6   D3

1CB7 EF             2814                        MOV   A,R7                         ;1CB7   EF

1CB8 9400           2815                        SUBB  A,#00H                       ;1CB8   94 00

1CBA EE             2816                        MOV   A,R6                         ;1CBA   EE

A51 MACRO ASSEMBLER  __________V0_0                                                       12/04/2016 21:52:57 PAGE    51

1CBB 6480           2817                        XRL   A,#80H                       ;1CBB   64 80

1CBD 9480           2818                        SUBB  A,#80H                       ;1CBD   94 80

1CBF 4027           2819                        JC    Q1CE8                        ;1CBF   40 27

1CC1 7402           2820                        MOV   A,#02H                       ;1CC1   74 02

1CC3 2529           2821                        ADD   A,29H                        ;1CC3   25 29

1CC5 F582           2822                        MOV   DPL,A                        ;1CC5   F5 82

1CC7 7400           2823                        MOV   A,#00H                       ;1CC7   74 00

1CC9 3528           2824                        ADDC  A,28H                        ;1CC9   35 28

1CCB F583           2825                        MOV   DPH,A                        ;1CCB   F5 83

1CCD E0             2826                        MOVX  A,@DPTR                      ;1CCD   E0

1CCE 2481           2827                        ADD   A,#81H                       ;1CCE   24 81

1CD0 FF             2828                        MOV   R7,A                         ;1CD0   FF

1CD1 E4             2829                        CLR   A                            ;1CD1   E4

1CD2 34FF           2830                        ADDC  A,#0FFH                      ;1CD2   34 FF

1CD4 FE             2831                        MOV   R6,A                         ;1CD4   FE

1CD5 D3             2832                        SETB  C                            ;1CD5   D3

1CD6 EF             2833                        MOV   A,R7                         ;1CD6   EF

1CD7 9400           2834                        SUBB  A,#00H                       ;1CD7   94 00

1CD9 EE             2835                        MOV   A,R6                         ;1CD9   EE

1CDA 6480           2836                        XRL   A,#80H                       ;1CDA   64 80

1CDC 9480           2837                        SUBB  A,#80H                       ;1CDC   94 80

1CDE 4008           2838                        JC    Q1CE8                        ;1CDE   40 08

1CE0 85281B         2839                        MOV   1BH,28H                      ;1CE0   85 28 1B

1CE3 85291C         2840                        MOV   1CH,29H                      ;1CE3   85 29 1C

1CE6 8011           2841                        SJMP  Q1CF9                        ;1CE6   80 11

1CE8 0529           2842     Q1CE8:             INC   29H                          ;1CE8   05 29

1CEA E529           2843                        MOV   A,29H                        ;1CEA   E5 29

1CEC 7002           2844                        JNZ   Q1CF0                        ;1CEC   70 02

1CEE 0528           2845                        INC   28H                          ;1CEE   05 28

1CF0 647F           2846     Q1CF0:             XRL   A,#7FH                       ;1CF0   64 7F

1CF2 4528           2847                        ORL   A,28H                        ;1CF2   45 28

1CF4 6003           2848                        JZ    Q1CF9                        ;1CF4   60 03

1CF6 021C70         2849                        LJMP  Q1C70                        ;1CF6   02 1C 70

                    2850     ;==========================================================================

1CF9 E512           2851     Q1CF9:             MOV   A,12H                        ;1CF9   E5 12

1CFB B4014F         2852                        CJNE  A,#01H,Q1D4D                 ;1CFB   B4 01 4F

1CFE E50F           2853                        MOV   A,0FH                        ;1CFE   E5 0F

1D00 B40223         2854                        CJNE  A,#02H,Q1D26                 ;1D00   B4 02 23

1D03 7409           2855                        MOV   A,#09H                       ;1D03   74 09

1D05 251C           2856                        ADD   A,1CH                        ;1D05   25 1C

1D07 F51C           2857                        MOV   1CH,A                        ;1D07   F5 1C

1D09 E4             2858                        CLR   A                            ;1D09   E4

1D0A 351B           2859                        ADDC  A,1BH                        ;1D0A   35 1B

1D0C F51B           2860                        MOV   1BH,A                        ;1D0C   F5 1B

1D0E E51C           2861                        MOV   A,1CH                        ;1D0E   E5 1C

1D10 247E           2862                        ADD   A,#7EH                       ;1D10   24 7E

1D12 E4             2863                        CLR   A                            ;1D12   E4

1D13 351B           2864                        ADDC  A,1BH                        ;1D13   35 1B

1D15 C3             2865                        CLR   C                            ;1D15   C3

1D16 9402           2866                        SUBB  A,#02H                       ;1D16   94 02

1D18 400C           2867                        JC    Q1D26                        ;1D18   40 0C

1D1A 74F7           2868                        MOV   A,#0F7H                      ;1D1A   74 F7

1D1C 251C           2869                        ADD   A,1CH                        ;1D1C   25 1C

1D1E F51C           2870                        MOV   1CH,A                        ;1D1E   F5 1C

1D20 74FF           2871                        MOV   A,#0FFH                      ;1D20   74 FF

1D22 351B           2872                        ADDC  A,1BH                        ;1D22   35 1B

1D24 F51B           2873                        MOV   1BH,A                        ;1D24   F5 1B

1D26 E50F           2874     Q1D26:             MOV   A,0FH                        ;1D26   E5 0F

1D28 B40122         2875                        CJNE  A,#01H,Q1D4D                 ;1D28   B4 01 22

1D2B 74F7           2876                        MOV   A,#0F7H                      ;1D2B   74 F7

1D2D 251C           2877                        ADD   A,1CH                        ;1D2D   25 1C

1D2F F51C           2878                        MOV   1CH,A                        ;1D2F   F5 1C

1D31 74FF           2879                        MOV   A,#0FFH                      ;1D31   74 FF

1D33 351B           2880                        ADDC  A,1BH                        ;1D33   35 1B

1D35 F51B           2881                        MOV   1BH,A                        ;1D35   F5 1B

1D37 D3             2882                        SETB  C                            ;1D37   D3

A51 MACRO ASSEMBLER  __________V0_0                                                       12/04/2016 21:52:57 PAGE    52

1D38 E51C           2883                        MOV   A,1CH                        ;1D38   E5 1C

1D3A 9400           2884                        SUBB  A,#00H                       ;1D3A   94 00

1D3C E51B           2885                        MOV   A,1BH                        ;1D3C   E5 1B

1D3E 9402           2886                        SUBB  A,#02H                       ;1D3E   94 02

1D40 400B           2887                        JC    Q1D4D                        ;1D40   40 0B

1D42 7409           2888                        MOV   A,#09H                       ;1D42   74 09

1D44 251C           2889                        ADD   A,1CH                        ;1D44   25 1C

1D46 F51C           2890                        MOV   1CH,A                        ;1D46   F5 1C

1D48 E4             2891                        CLR   A                            ;1D48   E4

1D49 351B           2892                        ADDC  A,1BH                        ;1D49   35 1B

1D4B F51B           2893                        MOV   1BH,A                        ;1D4B   F5 1B

1D4D E511           2894     Q1D4D:             MOV   A,11H                        ;1D4D   E5 11

1D4F 24FE           2895                        ADD   A,#0FEH                      ;1D4F   24 FE

1D51 7003           2896                        JNZ   Q1D56                        ;1D51   70 03

1D53 021DE6         2897                        LJMP  Q1DE6                        ;1D53   02 1D E6

                    2898     ;==========================================================================

1D56 14             2899     Q1D56:             DEC   A                            ;1D56   14

1D57 7003           2900                        JNZ   Q1D5C                        ;1D57   70 03

1D59 021E66         2901                        LJMP  Q1E66                        ;1D59   02 1E 66

                    2902     ;==========================================================================

1D5C 2402           2903     Q1D5C:             ADD   A,#02H                       ;1D5C   24 02

1D5E 6003           2904                        JZ    Q1D63                        ;1D5E   60 03

1D60 021EE4         2905                        LJMP  Q1EE4                        ;1D60   02 1E E4

                    2906     ;==========================================================================

1D63 E4             2907     Q1D63:             CLR   A                            ;1D63   E4

1D64 F528           2908                        MOV   28H,A                        ;1D64   F5 28

1D66 F529           2909                        MOV   29H,A                        ;1D66   F5 29

1D68 E529           2910     Q1D68:             MOV   A,29H                        ;1D68   E5 29

1D6A 251C           2911                        ADD   A,1CH                        ;1D6A   25 1C

1D6C FF             2912                        MOV   R7,A                         ;1D6C   FF

1D6D E528           2913                        MOV   A,28H                        ;1D6D   E5 28

1D6F 351B           2914                        ADDC  A,1BH                        ;1D6F   35 1B

1D71 FE             2915                        MOV   R6,A                         ;1D71   FE

1D72 7400           2916                        MOV   A,#00H                       ;1D72   74 00

1D74 2F             2917                        ADD   A,R7                         ;1D74   2F

1D75 F582           2918                        MOV   DPL,A                        ;1D75   F5 82

1D77 7400           2919                        MOV   A,#00H                       ;1D77   74 00

1D79 3E             2920                        ADDC  A,R6                         ;1D79   3E

1D7A F583           2921                        MOV   DPH,A                        ;1D7A   F5 83

1D7C E0             2922                        MOVX  A,@DPTR                      ;1D7C   E0

1D7D 2481           2923                        ADD   A,#81H                       ;1D7D   24 81

1D7F FF             2924                        MOV   R7,A                         ;1D7F   FF

1D80 E4             2925                        CLR   A                            ;1D80   E4

1D81 34FF           2926                        ADDC  A,#0FFH                      ;1D81   34 FF

1D83 FE             2927                        MOV   R6,A                         ;1D83   FE

1D84 7C00           2928                        MOV   R4,#00H                      ;1D84   7C 00

1D86 7D23           2929                        MOV   R5,#23H                      ;1D86   7D 23

1D88 12288A         2930                        LCALL Q288A                        ;1D88   12 28 8A

1D8B 0C             2931                        INC   R4                           ;1D8B   0C

1D8C 7D00           2932                        MOV   R5,#00H                      ;1D8C   7D 00

1D8E 12289C         2933                        LCALL Q289C                        ;1D8E   12 28 9C

1D91 C3             2934                        CLR   C                            ;1D91   C3

1D92 EF             2935                        MOV   A,R7                         ;1D92   EF

1D93 9480           2936                        SUBB  A,#80H                       ;1D93   94 80

1D95 EE             2937                        MOV   A,R6                         ;1D95   EE

1D96 6480           2938                        XRL   A,#80H                       ;1D96   64 80

1D98 9480           2939                        SUBB  A,#80H                       ;1D98   94 80

1D9A 5005           2940                        JNC   Q1DA1                        ;1D9A   50 05

1D9C EF             2941                        MOV   A,R7                         ;1D9C   EF

1D9D 241B           2942                        ADD   A,#1BH                       ;1D9D   24 1B

1D9F 802C           2943                        SJMP  Q1DCD                        ;1D9F   80 2C

1DA1 E529           2944     Q1DA1:             MOV   A,29H                        ;1DA1   E5 29

1DA3 251C           2945                        ADD   A,1CH                        ;1DA3   25 1C

1DA5 FF             2946                        MOV   R7,A                         ;1DA5   FF

1DA6 E528           2947                        MOV   A,28H                        ;1DA6   E5 28

1DA8 351B           2948                        ADDC  A,1BH                        ;1DA8   35 1B

A51 MACRO ASSEMBLER  __________V0_0                                                       12/04/2016 21:52:57 PAGE    53

1DAA FE             2949                        MOV   R6,A                         ;1DAA   FE

1DAB 7400           2950                        MOV   A,#00H                       ;1DAB   74 00

1DAD 2F             2951                        ADD   A,R7                         ;1DAD   2F

1DAE F582           2952                        MOV   DPL,A                        ;1DAE   F5 82

1DB0 7400           2953                        MOV   A,#00H                       ;1DB0   74 00

1DB2 3E             2954                        ADDC  A,R6                         ;1DB2   3E

1DB3 F583           2955                        MOV   DPH,A                        ;1DB3   F5 83

1DB5 E0             2956                        MOVX  A,@DPTR                      ;1DB5   E0

1DB6 2481           2957                        ADD   A,#81H                       ;1DB6   24 81

1DB8 FF             2958                        MOV   R7,A                         ;1DB8   FF

1DB9 E4             2959                        CLR   A                            ;1DB9   E4

1DBA 34FF           2960                        ADDC  A,#0FFH                      ;1DBA   34 FF

1DBC FE             2961                        MOV   R6,A                         ;1DBC   FE

1DBD 7C00           2962                        MOV   R4,#00H                      ;1DBD   7C 00

1DBF 7D23           2963                        MOV   R5,#23H                      ;1DBF   7D 23

1DC1 12288A         2964                        LCALL Q288A                        ;1DC1   12 28 8A

1DC4 0C             2965                        INC   R4                           ;1DC4   0C

1DC5 7D00           2966                        MOV   R5,#00H                      ;1DC5   7D 00

1DC7 12289C         2967                        LCALL Q289C                        ;1DC7   12 28 9C

1DCA EF             2968                        MOV   A,R7                         ;1DCA   EF

1DCB 241C           2969                        ADD   A,#1CH                       ;1DCB   24 1C

1DCD FF             2970     Q1DCD:             MOV   R7,A                         ;1DCD   FF

1DCE 743B           2971                        MOV   A,#3BH                       ;1DCE   74 3B

1DD0 2529           2972                        ADD   A,29H                        ;1DD0   25 29

1DD2 F8             2973                        MOV   R0,A                         ;1DD2   F8

1DD3 A607           2974                        MOV   @R0,07H                      ;1DD3   A6 07

1DD5 0529           2975                        INC   29H                          ;1DD5   05 29

1DD7 E529           2976                        MOV   A,29H                        ;1DD7   E5 29

1DD9 7002           2977                        JNZ   Q1DDD                        ;1DD9   70 02

1DDB 0528           2978                        INC   28H                          ;1DDB   05 28

1DDD 647F           2979     Q1DDD:             XRL   A,#7FH                       ;1DDD   64 7F

1DDF 4528           2980                        ORL   A,28H                        ;1DDF   45 28

1DE1 7085           2981                        JNZ   Q1D68                        ;1DE1   70 85

1DE3 021EE4         2982                        LJMP  Q1EE4                        ;1DE3   02 1E E4

                    2983     ;==========================================================================

1DE6 E4             2984     Q1DE6:             CLR   A                            ;1DE6   E4

1DE7 F528           2985                        MOV   28H,A                        ;1DE7   F5 28

1DE9 F529           2986                        MOV   29H,A                        ;1DE9   F5 29

1DEB E529           2987     Q1DEB:             MOV   A,29H                        ;1DEB   E5 29

1DED 251C           2988                        ADD   A,1CH                        ;1DED   25 1C

1DEF FF             2989                        MOV   R7,A                         ;1DEF   FF

1DF0 E528           2990                        MOV   A,28H                        ;1DF0   E5 28

1DF2 351B           2991                        ADDC  A,1BH                        ;1DF2   35 1B

1DF4 FE             2992                        MOV   R6,A                         ;1DF4   FE

1DF5 7400           2993                        MOV   A,#00H                       ;1DF5   74 00

1DF7 2F             2994                        ADD   A,R7                         ;1DF7   2F

1DF8 F582           2995                        MOV   DPL,A                        ;1DF8   F5 82

1DFA 7400           2996                        MOV   A,#00H                       ;1DFA   74 00

1DFC 3E             2997                        ADDC  A,R6                         ;1DFC   3E

1DFD F583           2998                        MOV   DPH,A                        ;1DFD   F5 83

1DFF E0             2999                        MOVX  A,@DPTR                      ;1DFF   E0

1E00 2481           3000                        ADD   A,#81H                       ;1E00   24 81

1E02 FF             3001                        MOV   R7,A                         ;1E02   FF

1E03 E4             3002                        CLR   A                            ;1E03   E4

1E04 34FF           3003                        ADDC  A,#0FFH                      ;1E04   34 FF

1E06 FE             3004                        MOV   R6,A                         ;1E06   FE

1E07 7C00           3005                        MOV   R4,#00H                      ;1E07   7C 00

1E09 7D23           3006                        MOV   R5,#23H                      ;1E09   7D 23

1E0B 12288A         3007                        LCALL Q288A                        ;1E0B   12 28 8A

1E0E 7D80           3008                        MOV   R5,#80H                      ;1E0E   7D 80

1E10 12289C         3009                        LCALL Q289C                        ;1E10   12 28 9C

1E13 C3             3010                        CLR   C                            ;1E13   C3

1E14 EF             3011                        MOV   A,R7                         ;1E14   EF

1E15 9440           3012                        SUBB  A,#40H                       ;1E15   94 40

1E17 EE             3013                        MOV   A,R6                         ;1E17   EE

1E18 6480           3014                        XRL   A,#80H                       ;1E18   64 80

A51 MACRO ASSEMBLER  __________V0_0                                                       12/04/2016 21:52:57 PAGE    54

1E1A 9480           3015                        SUBB  A,#80H                       ;1E1A   94 80

1E1C 5005           3016                        JNC   Q1E23                        ;1E1C   50 05

1E1E EF             3017                        MOV   A,R7                         ;1E1E   EF

1E1F 241B           3018                        ADD   A,#1BH                       ;1E1F   24 1B

1E21 802B           3019                        SJMP  Q1E4E                        ;1E21   80 2B

1E23 E529           3020     Q1E23:             MOV   A,29H                        ;1E23   E5 29

1E25 251C           3021                        ADD   A,1CH                        ;1E25   25 1C

1E27 FF             3022                        MOV   R7,A                         ;1E27   FF

1E28 E528           3023                        MOV   A,28H                        ;1E28   E5 28

1E2A 351B           3024                        ADDC  A,1BH                        ;1E2A   35 1B

1E2C FE             3025                        MOV   R6,A                         ;1E2C   FE

1E2D 7400           3026                        MOV   A,#00H                       ;1E2D   74 00

1E2F 2F             3027                        ADD   A,R7                         ;1E2F   2F

1E30 F582           3028                        MOV   DPL,A                        ;1E30   F5 82

1E32 7400           3029                        MOV   A,#00H                       ;1E32   74 00

1E34 3E             3030                        ADDC  A,R6                         ;1E34   3E

1E35 F583           3031                        MOV   DPH,A                        ;1E35   F5 83

1E37 E0             3032                        MOVX  A,@DPTR                      ;1E37   E0

1E38 2481           3033                        ADD   A,#81H                       ;1E38   24 81

1E3A FF             3034                        MOV   R7,A                         ;1E3A   FF

1E3B E4             3035                        CLR   A                            ;1E3B   E4

1E3C 34FF           3036                        ADDC  A,#0FFH                      ;1E3C   34 FF

1E3E FE             3037                        MOV   R6,A                         ;1E3E   FE

1E3F 7C00           3038                        MOV   R4,#00H                      ;1E3F   7C 00

1E41 7D23           3039                        MOV   R5,#23H                      ;1E41   7D 23

1E43 12288A         3040                        LCALL Q288A                        ;1E43   12 28 8A

1E46 7D80           3041                        MOV   R5,#80H                      ;1E46   7D 80

1E48 12289C         3042                        LCALL Q289C                        ;1E48   12 28 9C

1E4B EF             3043                        MOV   A,R7                         ;1E4B   EF

1E4C 241C           3044                        ADD   A,#1CH                       ;1E4C   24 1C

1E4E FF             3045     Q1E4E:             MOV   R7,A                         ;1E4E   FF

1E4F 743B           3046                        MOV   A,#3BH                       ;1E4F   74 3B

1E51 2529           3047                        ADD   A,29H                        ;1E51   25 29

1E53 F8             3048                        MOV   R0,A                         ;1E53   F8

1E54 A607           3049                        MOV   @R0,07H                      ;1E54   A6 07

1E56 0529           3050                        INC   29H                          ;1E56   05 29

1E58 E529           3051                        MOV   A,29H                        ;1E58   E5 29

1E5A 7002           3052                        JNZ   Q1E5E                        ;1E5A   70 02

1E5C 0528           3053                        INC   28H                          ;1E5C   05 28

1E5E 647F           3054     Q1E5E:             XRL   A,#7FH                       ;1E5E   64 7F

1E60 4528           3055                        ORL   A,28H                        ;1E60   45 28

1E62 7087           3056                        JNZ   Q1DEB                        ;1E62   70 87

1E64 807E           3057                        SJMP  Q1EE4                        ;1E64   80 7E

1E66 E4             3058     Q1E66:             CLR   A                            ;1E66   E4

1E67 F528           3059                        MOV   28H,A                        ;1E67   F5 28

1E69 F529           3060                        MOV   29H,A                        ;1E69   F5 29

1E6B E529           3061     Q1E6B:             MOV   A,29H                        ;1E6B   E5 29

1E6D 251C           3062                        ADD   A,1CH                        ;1E6D   25 1C

1E6F FF             3063                        MOV   R7,A                         ;1E6F   FF

1E70 E528           3064                        MOV   A,28H                        ;1E70   E5 28

1E72 351B           3065                        ADDC  A,1BH                        ;1E72   35 1B

1E74 FE             3066                        MOV   R6,A                         ;1E74   FE

1E75 7400           3067                        MOV   A,#00H                       ;1E75   74 00

1E77 2F             3068                        ADD   A,R7                         ;1E77   2F

1E78 F582           3069                        MOV   DPL,A                        ;1E78   F5 82

1E7A 7400           3070                        MOV   A,#00H                       ;1E7A   74 00

1E7C 3E             3071                        ADDC  A,R6                         ;1E7C   3E

1E7D F583           3072                        MOV   DPH,A                        ;1E7D   F5 83

1E7F E0             3073                        MOVX  A,@DPTR                      ;1E7F   E0

1E80 2481           3074                        ADD   A,#81H                       ;1E80   24 81

1E82 FF             3075                        MOV   R7,A                         ;1E82   FF

1E83 E4             3076                        CLR   A                            ;1E83   E4

1E84 34FF           3077                        ADDC  A,#0FFH                      ;1E84   34 FF

1E86 FE             3078                        MOV   R6,A                         ;1E86   FE

1E87 7C00           3079                        MOV   R4,#00H                      ;1E87   7C 00

1E89 7D23           3080                        MOV   R5,#23H                      ;1E89   7D 23

A51 MACRO ASSEMBLER  __________V0_0                                                       12/04/2016 21:52:57 PAGE    55

1E8B 12288A         3081                        LCALL Q288A                        ;1E8B   12 28 8A

1E8E 7D33           3082                        MOV   R5,#33H                      ;1E8E   7D 33

1E90 12289C         3083                        LCALL Q289C                        ;1E90   12 28 9C

1E93 C3             3084                        CLR   C                            ;1E93   C3

1E94 EF             3085                        MOV   A,R7                         ;1E94   EF

1E95 941A           3086                        SUBB  A,#1AH                       ;1E95   94 1A

1E97 EE             3087                        MOV   A,R6                         ;1E97   EE

1E98 6480           3088                        XRL   A,#80H                       ;1E98   64 80

1E9A 9480           3089                        SUBB  A,#80H                       ;1E9A   94 80

1E9C 5005           3090                        JNC   Q1EA3                        ;1E9C   50 05

1E9E EF             3091                        MOV   A,R7                         ;1E9E   EF

1E9F 241B           3092                        ADD   A,#1BH                       ;1E9F   24 1B

1EA1 802B           3093                        SJMP  Q1ECE                        ;1EA1   80 2B

1EA3 E529           3094     Q1EA3:             MOV   A,29H                        ;1EA3   E5 29

1EA5 251C           3095                        ADD   A,1CH                        ;1EA5   25 1C

1EA7 FF             3096                        MOV   R7,A                         ;1EA7   FF

1EA8 E528           3097                        MOV   A,28H                        ;1EA8   E5 28

1EAA 351B           3098                        ADDC  A,1BH                        ;1EAA   35 1B

1EAC FE             3099                        MOV   R6,A                         ;1EAC   FE

1EAD 7400           3100                        MOV   A,#00H                       ;1EAD   74 00

1EAF 2F             3101                        ADD   A,R7                         ;1EAF   2F

1EB0 F582           3102                        MOV   DPL,A                        ;1EB0   F5 82

1EB2 7400           3103                        MOV   A,#00H                       ;1EB2   74 00

1EB4 3E             3104                        ADDC  A,R6                         ;1EB4   3E

1EB5 F583           3105                        MOV   DPH,A                        ;1EB5   F5 83

1EB7 E0             3106                        MOVX  A,@DPTR                      ;1EB7   E0

1EB8 2481           3107                        ADD   A,#81H                       ;1EB8   24 81

1EBA FF             3108                        MOV   R7,A                         ;1EBA   FF

1EBB E4             3109                        CLR   A                            ;1EBB   E4

1EBC 34FF           3110                        ADDC  A,#0FFH                      ;1EBC   34 FF

1EBE FE             3111                        MOV   R6,A                         ;1EBE   FE

1EBF 7C00           3112                        MOV   R4,#00H                      ;1EBF   7C 00

1EC1 7D23           3113                        MOV   R5,#23H                      ;1EC1   7D 23

1EC3 12288A         3114                        LCALL Q288A                        ;1EC3   12 28 8A

1EC6 7D33           3115                        MOV   R5,#33H                      ;1EC6   7D 33

1EC8 12289C         3116                        LCALL Q289C                        ;1EC8   12 28 9C

1ECB EF             3117                        MOV   A,R7                         ;1ECB   EF

1ECC 241C           3118                        ADD   A,#1CH                       ;1ECC   24 1C

1ECE FF             3119     Q1ECE:             MOV   R7,A                         ;1ECE   FF

1ECF 743B           3120                        MOV   A,#3BH                       ;1ECF   74 3B

1ED1 2529           3121                        ADD   A,29H                        ;1ED1   25 29

1ED3 F8             3122                        MOV   R0,A                         ;1ED3   F8

1ED4 A607           3123                        MOV   @R0,07H                      ;1ED4   A6 07

1ED6 0529           3124                        INC   29H                          ;1ED6   05 29

1ED8 E529           3125                        MOV   A,29H                        ;1ED8   E5 29

1EDA 7002           3126                        JNZ   Q1EDE                        ;1EDA   70 02

1EDC 0528           3127                        INC   28H                          ;1EDC   05 28

1EDE 647F           3128     Q1EDE:             XRL   A,#7FH                       ;1EDE   64 7F

1EE0 4528           3129                        ORL   A,28H                        ;1EE0   45 28

1EE2 7087           3130                        JNZ   Q1E6B                        ;1EE2   70 87

1EE4 E526           3131     Q1EE4:             MOV   A,26H                        ;1EE4   E5 26

1EE6 6401           3132                        XRL   A,#01H                       ;1EE6   64 01

1EE8 7037           3133                        JNZ   Q1F21                        ;1EE8   70 37

1EEA E512           3134                        MOV   A,12H                        ;1EEA   E5 12

1EEC 7033           3135                        JNZ   Q1F21                        ;1EEC   70 33

1EEE C28C           3136                        CLR   TR0                          ;1EEE   C2 8C

1EF0 C2A9           3137                        CLR   ET0                          ;1EF0   C2 A9

1EF2 E508           3138                        MOV   A,08H                        ;1EF2   E5 08

1EF4 B4551A         3139                        CJNE  A,#55H,Q1F11                 ;1EF4   B4 55 1A

1EF7 852721         3140                        MOV   21H,27H                      ;1EF7   85 27 21

1EFA 851022         3141                        MOV   22H,10H                      ;1EFA   85 10 22

1EFD 851123         3142                        MOV   23H,11H                      ;1EFD   85 11 23

1F00 7B00           3143                        MOV   R3,#00H                      ;1F00   7B 00

1F02 7A00           3144                        MOV   R2,#00H                      ;1F02   7A 00

1F04 7921           3145                        MOV   R1,#21H                      ;1F04   79 21

1F06 7D03           3146                        MOV   R5,#03H                      ;1F06   7D 03

A51 MACRO ASSEMBLER  __________V0_0                                                       12/04/2016 21:52:57 PAGE    56

1F08 E4             3147                        CLR   A                            ;1F08   E4

1F09 FF             3148                        MOV   R7,A                         ;1F09   FF

1F0A FE             3149                        MOV   R6,A                         ;1F0A   FE

1F0B 123109         3150                        LCALL Q3109                        ;1F0B   12 31 09

1F0E E4             3151                        CLR   A                            ;1F0E   E4

1F0F F508           3152                        MOV   08H,A                        ;1F0F   F5 08

1F11 AF27           3153     Q1F11:             MOV   R7,27H                       ;1F11   AF 27

1F13 12218B         3154                        LCALL Q218B                        ;1F13   12 21 8B

1F16 E4             3155                        CLR   A                            ;1F16   E4

1F17 F526           3156                        MOV   26H,A                        ;1F17   F5 26

1F19 F50D           3157                        MOV   0DH,A                        ;1F19   F5 0D

1F1B F50E           3158                        MOV   0EH,A                        ;1F1B   F5 0E

1F1D D28C           3159                        SETB  TR0                          ;1F1D   D2 8C

1F1F D2A9           3160                        SETB  ET0                          ;1F1F   D2 A9

1F21 E512           3161     Q1F21:             MOV   A,12H                        ;1F21   E5 12

1F23 B4012D         3162                        CJNE  A,#01H,Q1F53                 ;1F23   B4 01 2D

1F26 AF27           3163                        MOV   R7,27H                       ;1F26   AF 27

1F28 12218B         3164                        LCALL Q218B                        ;1F28   12 21 8B

1F2B 752800         3165                        MOV   28H,#00H                     ;1F2B   75 28 00

1F2E 752928         3166                        MOV   29H,#28H                     ;1F2E   75 29 28

1F31 752A04         3167     Q1F31:             MOV   2AH,#04H                     ;1F31   75 2A 04

1F34 752BB0         3168                        MOV   2BH,#0B0H                    ;1F34   75 2B B0

1F37 E52B           3169     Q1F37:             MOV   A,2BH                        ;1F37   E5 2B

1F39 152B           3170                        DEC   2BH                          ;1F39   15 2B

1F3B 7002           3171                        JNZ   Q1F3F                        ;1F3B   70 02

1F3D 152A           3172                        DEC   2AH                          ;1F3D   15 2A

1F3F E52B           3173     Q1F3F:             MOV   A,2BH                        ;1F3F   E5 2B

1F41 452A           3174                        ORL   A,2AH                        ;1F41   45 2A

1F43 70F2           3175                        JNZ   Q1F37                        ;1F43   70 F2

1F45 E529           3176                        MOV   A,29H                        ;1F45   E5 29

1F47 1529           3177                        DEC   29H                          ;1F47   15 29

1F49 7002           3178                        JNZ   Q1F4D                        ;1F49   70 02

1F4B 1528           3179                        DEC   28H                          ;1F4B   15 28

1F4D E529           3180     Q1F4D:             MOV   A,29H                        ;1F4D   E5 29

1F4F 4528           3181                        ORL   A,28H                        ;1F4F   45 28

1F51 70DE           3182                        JNZ   Q1F31                        ;1F51   70 DE

1F53 E4             3183     Q1F53:             CLR   A                            ;1F53   E4

1F54 F50F           3184                        MOV   0FH,A                        ;1F54   F5 0F

1F56 F528           3185                        MOV   28H,A                        ;1F56   F5 28

1F58 752978         3186                        MOV   29H,#78H                     ;1F58   75 29 78

1F5B D3             3187     Q1F5B:             SETB  C                            ;1F5B   D3

1F5C E529           3188                        MOV   A,29H                        ;1F5C   E5 29

1F5E 9400           3189                        SUBB  A,#00H                       ;1F5E   94 00

1F60 E528           3190                        MOV   A,28H                        ;1F60   E5 28

1F62 9400           3191                        SUBB  A,#00H                       ;1F62   94 00

1F64 5003           3192                        JNC   Q1F69                        ;1F64   50 03

1F66 021A4D         3193                        LJMP  Q1A4D                        ;1F66   02 1A 4D

                    3194     ;==========================================================================

1F69 E510           3195     Q1F69:             MOV   A,10H                        ;1F69   E5 10

1F6B 24FD           3196                        ADD   A,#0FDH                      ;1F6B   24 FD

1F6D B40A00         3197                        CJNE  A,#0AH,Q1F70                 ;1F6D   B4 0A 00

1F70 5062           3198     Q1F70:             JNC   Q1FD4                        ;1F70   50 62

1F72 901F80         3199                        MOV   DPTR,#1F80H                  ;1F72   90 1F 80

1F75 75F003         3200                        MOV   B,#03H                       ;1F75   75 F0 03

1F78 A4             3201                        MUL   AB                           ;1F78   A4

1F79 C583           3202                        XCH   A,DPH                        ;1F79   C5 83

1F7B 25F0           3203                        ADD   A,B                          ;1F7B   25 F0

1F7D C583           3204                        XCH   A,DPH                        ;1F7D   C5 83

1F7F 73             3205                        JMP   @A+DPTR                      ;1F7F   73

1F80 021F9E         3206                        LJMP  Q1F9E                        ;1F80   02 1F 9E

                    3207     ;==========================================================================

1F83 021FA0         3208                        LJMP  Q1FA0                        ;1F83   02 1F A0

                    3209     ;==========================================================================

1F86 021FA8         3210                        LJMP  Q1FA8                        ;1F86   02 1F A8

                    3211     ;==========================================================================

1F89 021FAA         3212                        LJMP  Q1FAA                        ;1F89   02 1F AA

A51 MACRO ASSEMBLER  __________V0_0                                                       12/04/2016 21:52:57 PAGE    57

                    3213     ;==========================================================================

1F8C 021FB2         3214                        LJMP  Q1FB2                        ;1F8C   02 1F B2

                    3215     ;==========================================================================

1F8F 021FBA         3216                        LJMP  Q1FBA                        ;1F8F   02 1F BA

                    3217     ;==========================================================================

1F92 021FC2         3218                        LJMP  Q1FC2                        ;1F92   02 1F C2

                    3219     ;==========================================================================

1F95 021FCA         3220                        LJMP  Q1FCA                        ;1F95   02 1F CA

                    3221     ;==========================================================================

1F98 021FCC         3222                        LJMP  Q1FCC                        ;1F98   02 1F CC

                    3223     ;==========================================================================

1F9B 021FCE         3224                        LJMP  Q1FCE                        ;1F9B   02 1F CE

                    3225     ;==========================================================================

1F9E 8000           3226     Q1F9E:             SJMP  Q1FA0                        ;1F9E   80 00

1FA0 752A00         3227     Q1FA0:             MOV   2AH,#00H                     ;1FA0   75 2A 00

1FA3 752B02         3228                        MOV   2BH,#02H                     ;1FA3   75 2B 02

1FA6 802C           3229                        SJMP  Q1FD4                        ;1FA6   80 2C

1FA8 8024           3230     Q1FA8:             SJMP  Q1FCE                        ;1FA8   80 24

1FAA 752A02         3231     Q1FAA:             MOV   2AH,#02H                     ;1FAA   75 2A 02

1FAD 752B58         3232                        MOV   2BH,#58H                     ;1FAD   75 2B 58

1FB0 8022           3233                        SJMP  Q1FD4                        ;1FB0   80 22

1FB2 752A01         3234     Q1FB2:             MOV   2AH,#01H                     ;1FB2   75 2A 01

1FB5 752BF4         3235                        MOV   2BH,#0F4H                    ;1FB5   75 2B F4

1FB8 801A           3236                        SJMP  Q1FD4                        ;1FB8   80 1A

1FBA 752A00         3237     Q1FBA:             MOV   2AH,#00H                     ;1FBA   75 2A 00

1FBD 752BC8         3238                        MOV   2BH,#0C8H                    ;1FBD   75 2B C8

1FC0 8012           3239                        SJMP  Q1FD4                        ;1FC0   80 12

1FC2 752A00         3240     Q1FC2:             MOV   2AH,#00H                     ;1FC2   75 2A 00

1FC5 752B64         3241                        MOV   2BH,#64H                     ;1FC5   75 2B 64

1FC8 800A           3242                        SJMP  Q1FD4                        ;1FC8   80 0A

1FCA 8002           3243     Q1FCA:             SJMP  Q1FCE                        ;1FCA   80 02

1FCC 8000           3244     Q1FCC:             SJMP  Q1FCE                        ;1FCC   80 00

1FCE 752A03         3245     Q1FCE:             MOV   2AH,#03H                     ;1FCE   75 2A 03

1FD1 752BE8         3246                        MOV   2BH,#0E8H                    ;1FD1   75 2B E8

1FD4 D3             3247     Q1FD4:             SETB  C                            ;1FD4   D3

1FD5 E52B           3248                        MOV   A,2BH                        ;1FD5   E5 2B

1FD7 9400           3249                        SUBB  A,#00H                       ;1FD7   94 00

1FD9 E52A           3250                        MOV   A,2AH                        ;1FD9   E5 2A

1FDB 9400           3251                        SUBB  A,#00H                       ;1FDB   94 00

1FDD 400A           3252                        JC    Q1FE9                        ;1FDD   40 0A

1FDF E52B           3253                        MOV   A,2BH                        ;1FDF   E5 2B

1FE1 152B           3254                        DEC   2BH                          ;1FE1   15 2B

1FE3 70EF           3255                        JNZ   Q1FD4                        ;1FE3   70 EF

1FE5 152A           3256                        DEC   2AH                          ;1FE5   15 2A

1FE7 80EB           3257                        SJMP  Q1FD4                        ;1FE7   80 EB

1FE9 E5B0           3258     Q1FE9:             MOV   A,P3                         ;1FE9   E5 B0

1FEB 20E232         3259                        JB    ACC.2,Q2020                  ;1FEB   20 E2 32

1FEE 752A27         3260                        MOV   2AH,#27H                     ;1FEE   75 2A 27

1FF1 752B10         3261                        MOV   2BH,#10H                     ;1FF1   75 2B 10

1FF4 E52B           3262     Q1FF4:             MOV   A,2BH                        ;1FF4   E5 2B

1FF6 152B           3263                        DEC   2BH                          ;1FF6   15 2B

1FF8 7002           3264                        JNZ   Q1FFC                        ;1FF8   70 02

1FFA 152A           3265                        DEC   2AH                          ;1FFA   15 2A

1FFC E52B           3266     Q1FFC:             MOV   A,2BH                        ;1FFC   E5 2B

1FFE 452A           3267                        ORL   A,2AH                        ;1FFE   45 2A

2000 70F2           3268                        JNZ   Q1FF4                        ;2000   70 F2

2002 E5B0           3269                        MOV   A,P3                         ;2002   E5 B0

2004 20E219         3270                        JB    ACC.2,Q2020                  ;2004   20 E2 19

2007 E5B0           3271     Q2007:             MOV   A,P3                         ;2007   E5 B0

2009 30E2FB         3272                        JNB   ACC.2,Q2007                  ;2009   30 E2 FB

200C E512           3273                        MOV   A,12H                        ;200C   E5 12

200E 7009           3274                        JNZ   Q2019                        ;200E   70 09

2010 751201         3275                        MOV   12H,#01H                     ;2010   75 12 01

2013 C28C           3276                        CLR   TR0                          ;2013   C2 8C

2015 C2A9           3277                        CLR   ET0                          ;2015   C2 A9

2017 8007           3278                        SJMP  Q2020                        ;2017   80 07

A51 MACRO ASSEMBLER  __________V0_0                                                       12/04/2016 21:52:57 PAGE    58

2019 E4             3279     Q2019:             CLR   A                            ;2019   E4

201A F512           3280                        MOV   12H,A                        ;201A   F5 12

201C D28C           3281                        SETB  TR0                          ;201C   D2 8C

201E D2A9           3282                        SETB  ET0                          ;201E   D2 A9

2020 E5B0           3283     Q2020:             MOV   A,P3                         ;2020   E5 B0

2022 20E35A         3284                        JB    ACC.3,Q207F                  ;2022   20 E3 5A

2025 E512           3285                        MOV   A,12H                        ;2025   E5 12

2027 7032           3286                        JNZ   Q205B                        ;2027   70 32

2029 752A27         3287                        MOV   2AH,#27H                     ;2029   75 2A 27

202C 752B10         3288                        MOV   2BH,#10H                     ;202C   75 2B 10

202F E52B           3289     Q202F:             MOV   A,2BH                        ;202F   E5 2B

2031 152B           3290                        DEC   2BH                          ;2031   15 2B

2033 7002           3291                        JNZ   Q2037                        ;2033   70 02

2035 152A           3292                        DEC   2AH                          ;2035   15 2A

2037 E52B           3293     Q2037:             MOV   A,2BH                        ;2037   E5 2B

2039 452A           3294                        ORL   A,2AH                        ;2039   45 2A

203B 70F2           3295                        JNZ   Q202F                        ;203B   70 F2

203D E5B0           3296                        MOV   A,P3                         ;203D   E5 B0

203F 20E319         3297                        JB    ACC.3,Q205B                  ;203F   20 E3 19

2042 E5B0           3298     Q2042:             MOV   A,P3                         ;2042   E5 B0

2044 30E3FB         3299                        JNB   ACC.3,Q2042                  ;2044   30 E3 FB

2047 E4             3300                        CLR   A                            ;2047   E4

2048 F50D           3301                        MOV   0DH,A                        ;2048   F5 0D

204A F50E           3302                        MOV   0EH,A                        ;204A   F5 0E

204C 1510           3303                        DEC   10H                          ;204C   15 10

204E 750855         3304                        MOV   08H,#55H                     ;204E   75 08 55

2051 E510           3305                        MOV   A,10H                        ;2051   E5 10

2053 C3             3306                        CLR   C                            ;2053   C3

2054 9403           3307                        SUBB  A,#03H                       ;2054   94 03

2056 5003           3308                        JNC   Q205B                        ;2056   50 03

2058 75100C         3309                        MOV   10H,#0CH                     ;2058   75 10 0C

205B E512           3310     Q205B:             MOV   A,12H                        ;205B   E5 12

205D B4011F         3311                        CJNE  A,#01H,Q207F                 ;205D   B4 01 1F

2060 752AC3         3312                        MOV   2AH,#0C3H                    ;2060   75 2A C3

2063 752B50         3313                        MOV   2BH,#50H                     ;2063   75 2B 50

2066 E52B           3314     Q2066:             MOV   A,2BH                        ;2066   E5 2B

2068 152B           3315                        DEC   2BH                          ;2068   15 2B

206A 7002           3316                        JNZ   Q206E                        ;206A   70 02

206C 152A           3317                        DEC   2AH                          ;206C   15 2A

206E E52B           3318     Q206E:             MOV   A,2BH                        ;206E   E5 2B

2070 452A           3319                        ORL   A,2AH                        ;2070   45 2A

2072 70F2           3320                        JNZ   Q2066                        ;2072   70 F2

2074 E5B0           3321                        MOV   A,P3                         ;2074   E5 B0

2076 20E306         3322                        JB    ACC.3,Q207F                  ;2076   20 E3 06

2079 750F01         3323                        MOV   0FH,#01H                     ;2079   75 0F 01

207C 021A4D         3324                        LJMP  Q1A4D                        ;207C   02 1A 4D

                    3325     ;==========================================================================

207F E5B0           3326     Q207F:             MOV   A,P3                         ;207F   E5 B0

2081 20E75A         3327                        JB    ACC.7,Q20DE                  ;2081   20 E7 5A

2084 E512           3328                        MOV   A,12H                        ;2084   E5 12

2086 7032           3329                        JNZ   Q20BA                        ;2086   70 32

2088 752A27         3330                        MOV   2AH,#27H                     ;2088   75 2A 27

208B 752B10         3331                        MOV   2BH,#10H                     ;208B   75 2B 10

208E E52B           3332     Q208E:             MOV   A,2BH                        ;208E   E5 2B

2090 152B           3333                        DEC   2BH                          ;2090   15 2B

2092 7002           3334                        JNZ   Q2096                        ;2092   70 02

2094 152A           3335                        DEC   2AH                          ;2094   15 2A

2096 E52B           3336     Q2096:             MOV   A,2BH                        ;2096   E5 2B

2098 452A           3337                        ORL   A,2AH                        ;2098   45 2A

209A 70F2           3338                        JNZ   Q208E                        ;209A   70 F2

209C E5B0           3339                        MOV   A,P3                         ;209C   E5 B0

209E 20E719         3340                        JB    ACC.7,Q20BA                  ;209E   20 E7 19

20A1 E5B0           3341     Q20A1:             MOV   A,P3                         ;20A1   E5 B0

20A3 30E7FB         3342                        JNB   ACC.7,Q20A1                  ;20A3   30 E7 FB

20A6 E4             3343                        CLR   A                            ;20A6   E4

20A7 F50D           3344                        MOV   0DH,A                        ;20A7   F5 0D

A51 MACRO ASSEMBLER  __________V0_0                                                       12/04/2016 21:52:57 PAGE    59

20A9 F50E           3345                        MOV   0EH,A                        ;20A9   F5 0E

20AB 0510           3346                        INC   10H                          ;20AB   05 10

20AD 750855         3347                        MOV   08H,#55H                     ;20AD   75 08 55

20B0 E510           3348                        MOV   A,10H                        ;20B0   E5 10

20B2 D3             3349                        SETB  C                            ;20B2   D3

20B3 940C           3350                        SUBB  A,#0CH                       ;20B3   94 0C

20B5 4003           3351                        JC    Q20BA                        ;20B5   40 03

20B7 751003         3352                        MOV   10H,#03H                     ;20B7   75 10 03

20BA E512           3353     Q20BA:             MOV   A,12H                        ;20BA   E5 12

20BC B4011F         3354                        CJNE  A,#01H,Q20DE                 ;20BC   B4 01 1F

20BF 752AC3         3355                        MOV   2AH,#0C3H                    ;20BF   75 2A C3

20C2 752B50         3356                        MOV   2BH,#50H                     ;20C2   75 2B 50

20C5 E52B           3357     Q20C5:             MOV   A,2BH                        ;20C5   E5 2B

20C7 152B           3358                        DEC   2BH                          ;20C7   15 2B

20C9 7002           3359                        JNZ   Q20CD                        ;20C9   70 02

20CB 152A           3360                        DEC   2AH                          ;20CB   15 2A

20CD E52B           3361     Q20CD:             MOV   A,2BH                        ;20CD   E5 2B

20CF 452A           3362                        ORL   A,2AH                        ;20CF   45 2A

20D1 70F2           3363                        JNZ   Q20C5                        ;20D1   70 F2

20D3 E5B0           3364                        MOV   A,P3                         ;20D3   E5 B0

20D5 20E706         3365                        JB    ACC.7,Q20DE                  ;20D5   20 E7 06

20D8 750F02         3366                        MOV   0FH,#02H                     ;20D8   75 0F 02

20DB 021A4D         3367                        LJMP  Q1A4D                        ;20DB   02 1A 4D

                    3368     ;==========================================================================

20DE E5B0           3369     Q20DE:             MOV   A,P3                         ;20DE   E5 B0

20E0 20E631         3370                        JB    ACC.6,Q2114                  ;20E0   20 E6 31

20E3 752A27         3371                        MOV   2AH,#27H                     ;20E3   75 2A 27

20E6 752B10         3372                        MOV   2BH,#10H                     ;20E6   75 2B 10

20E9 E52B           3373     Q20E9:             MOV   A,2BH                        ;20E9   E5 2B

20EB 152B           3374                        DEC   2BH                          ;20EB   15 2B

20ED 7002           3375                        JNZ   Q20F1                        ;20ED   70 02

20EF 152A           3376                        DEC   2AH                          ;20EF   15 2A

20F1 E52B           3377     Q20F1:             MOV   A,2BH                        ;20F1   E5 2B

20F3 452A           3378                        ORL   A,2AH                        ;20F3   45 2A

20F5 70F2           3379                        JNZ   Q20E9                        ;20F5   70 F2

20F7 E5B0           3380                        MOV   A,P3                         ;20F7   E5 B0

20F9 20E618         3381                        JB    ACC.6,Q2114                  ;20F9   20 E6 18

20FC E5B0           3382     Q20FC:             MOV   A,P3                         ;20FC   E5 B0

20FE 30E6FB         3383                        JNB   ACC.6,Q20FC                  ;20FE   30 E6 FB

2101 0511           3384                        INC   11H                          ;2101   05 11

2103 E511           3385                        MOV   A,11H                        ;2103   E5 11

2105 D3             3386                        SETB  C                            ;2105   D3

2106 9403           3387                        SUBB  A,#03H                       ;2106   94 03

2108 4003           3388                        JC    Q210D                        ;2108   40 03

210A 751101         3389                        MOV   11H,#01H                     ;210A   75 11 01

210D E512           3390     Q210D:             MOV   A,12H                        ;210D   E5 12

210F 7003           3391                        JNZ   Q2114                        ;210F   70 03

2111 750855         3392                        MOV   08H,#55H                     ;2111   75 08 55

2114 E5B0           3393     Q2114:             MOV   A,P3                         ;2114   E5 B0

2116 20E431         3394                        JB    ACC.4,Q214A                  ;2116   20 E4 31

2119 752A27         3395                        MOV   2AH,#27H                     ;2119   75 2A 27

211C 752B10         3396                        MOV   2BH,#10H                     ;211C   75 2B 10

211F E52B           3397     Q211F:             MOV   A,2BH                        ;211F   E5 2B

2121 152B           3398                        DEC   2BH                          ;2121   15 2B

2123 7002           3399                        JNZ   Q2127                        ;2123   70 02

2125 152A           3400                        DEC   2AH                          ;2125   15 2A

2127 E52B           3401     Q2127:             MOV   A,2BH                        ;2127   E5 2B

2129 452A           3402                        ORL   A,2AH                        ;2129   45 2A

212B 70F2           3403                        JNZ   Q211F                        ;212B   70 F2

212D E5B0           3404                        MOV   A,P3                         ;212D   E5 B0

212F 20E418         3405                        JB    ACC.4,Q214A                  ;212F   20 E4 18

2132 E5B0           3406     Q2132:             MOV   A,P3                         ;2132   E5 B0

2134 30E4FB         3407                        JNB   ACC.4,Q2132                  ;2134   30 E4 FB

2137 1511           3408                        DEC   11H                          ;2137   15 11

2139 E511           3409                        MOV   A,11H                        ;2139   E5 11

213B C3             3410                        CLR   C                            ;213B   C3

A51 MACRO ASSEMBLER  __________V0_0                                                       12/04/2016 21:52:57 PAGE    60

213C 9401           3411                        SUBB  A,#01H                       ;213C   94 01

213E 5003           3412                        JNC   Q2143                        ;213E   50 03

2140 751103         3413                        MOV   11H,#03H                     ;2140   75 11 03

2143 E512           3414     Q2143:             MOV   A,12H                        ;2143   E5 12

2145 7003           3415                        JNZ   Q214A                        ;2145   70 03

2147 750855         3416                        MOV   08H,#55H                     ;2147   75 08 55

214A E590           3417     Q214A:             MOV   A,P1                         ;214A   E5 90

214C 20E731         3418                        JB    ACC.7,Q2180                  ;214C   20 E7 31

214F 752A27         3419                        MOV   2AH,#27H                     ;214F   75 2A 27

2152 752B10         3420                        MOV   2BH,#10H                     ;2152   75 2B 10

2155 E52B           3421     Q2155:             MOV   A,2BH                        ;2155   E5 2B

2157 152B           3422                        DEC   2BH                          ;2157   15 2B

2159 7002           3423                        JNZ   Q215D                        ;2159   70 02

215B 152A           3424                        DEC   2AH                          ;215B   15 2A

215D E52B           3425     Q215D:             MOV   A,2BH                        ;215D   E5 2B

215F 452A           3426                        ORL   A,2AH                        ;215F   45 2A

2161 70F2           3427                        JNZ   Q2155                        ;2161   70 F2

2163 E590           3428                        MOV   A,P1                         ;2163   E5 90

2165 20E718         3429                        JB    ACC.7,Q2180                  ;2165   20 E7 18

2168 E590           3430     Q2168:             MOV   A,P1                         ;2168   E5 90

216A 30E7FB         3431                        JNB   ACC.7,Q2168                  ;216A   30 E7 FB

216D 0527           3432                        INC   27H                          ;216D   05 27

216F E527           3433                        MOV   A,27H                        ;216F   E5 27

2171 D3             3434                        SETB  C                            ;2171   D3

2172 9402           3435                        SUBB  A,#02H                       ;2172   94 02

2174 4003           3436                        JC    Q2179                        ;2174   40 03

2176 E4             3437                        CLR   A                            ;2176   E4

2177 F527           3438                        MOV   27H,A                        ;2177   F5 27

2179 E512           3439     Q2179:             MOV   A,12H                        ;2179   E5 12

217B 7003           3440                        JNZ   Q2180                        ;217B   70 03

217D 750855         3441                        MOV   08H,#55H                     ;217D   75 08 55

2180 E529           3442     Q2180:             MOV   A,29H                        ;2180   E5 29

2182 1529           3443                        DEC   29H                          ;2182   15 29

2184 7002           3444                        JNZ   Q2188                        ;2184   70 02

2186 1528           3445                        DEC   28H                          ;2186   15 28

2188 021F5B         3446     Q2188:             LJMP  Q1F5B                        ;2188   02 1F 5B

                    3447     ;==========================================================================

218B 8F2C           3448     Q218B:             MOV   2CH,R7                       ;218B   8F 2C

218D 122A55         3449                        LCALL Q2A55                        ;218D   12 2A 55

2190 AF2C           3450                        MOV   R7,2CH                       ;2190   AF 2C

2192 122F87         3451                        LCALL Q2F87                        ;2192   12 2F 87

2195 E4             3452                        CLR   A                            ;2195   E4

2196 FD             3453                        MOV   R5,A                         ;2196   FD

2197 743B           3454     Q2197:             MOV   A,#3BH                       ;2197   74 3B

2199 2D             3455                        ADD   A,R5                         ;2199   2D

219A F8             3456                        MOV   R0,A                         ;219A   F8

219B E6             3457                        MOV   A,@R0                        ;219B   E6

219C FC             3458                        MOV   R4,A                         ;219C   FC

219D D3             3459                        SETB  C                            ;219D   D3

219E 942F           3460                        SUBB  A,#2FH                       ;219E   94 2F

21A0 4079           3461                        JC    Q221B                        ;21A0   40 79

21A2 7FB0           3462                        MOV   R7,#0B0H                     ;21A2   7F B0

21A4 12317D         3463                        LCALL Q317D                        ;21A4   12 31 7D

21A7 ED             3464                        MOV   A,R5                         ;21A7   ED

21A8 2404           3465                        ADD   A,#04H                       ;21A8   24 04

21AA FF             3466                        MOV   R7,A                         ;21AA   FF

21AB E4             3467                        CLR   A                            ;21AB   E4

21AC 33             3468                        RLC   A                            ;21AC   33

21AD FE             3469                        MOV   R6,A                         ;21AD   FE

21AE EF             3470                        MOV   A,R7                         ;21AE   EF

21AF 7804           3471                        MOV   R0,#04H                      ;21AF   78 04

21B1 CE             3472     Q21B1:             XCH   A,R6                         ;21B1   CE

21B2 A2E7           3473                        MOV   C,ACC.7                      ;21B2   A2 E7

21B4 13             3474                        RRC   A                            ;21B4   13

21B5 CE             3475                        XCH   A,R6                         ;21B5   CE

21B6 13             3476                        RRC   A                            ;21B6   13

A51 MACRO ASSEMBLER  __________V0_0                                                       12/04/2016 21:52:57 PAGE    61

21B7 D8F8           3477                        DJNZ  R0,Q21B1                     ;21B7   D8 F8

21B9 123171         3478                        LCALL Q3171                        ;21B9   12 31 71

21BC E52C           3479                        MOV   A,2CH                        ;21BC   E5 2C

21BE 7019           3480                        JNZ   Q21D9                        ;21BE   70 19

21C0 743B           3481                        MOV   A,#3BH                       ;21C0   74 3B

21C2 2D             3482                        ADD   A,R5                         ;21C2   2D

21C3 F8             3483                        MOV   R0,A                         ;21C3   F8

21C4 E6             3484                        MOV   A,@R0                        ;21C4   E6

21C5 24D0           3485                        ADD   A,#0D0H                      ;21C5   24 D0

21C7 FF             3486                        MOV   R7,A                         ;21C7   FF

21C8 7480           3487                        MOV   A,#80H                       ;21C8   74 80

21CA A807           3488                        MOV   R0,07H                       ;21CA   A8 07

21CC 08             3489                        INC   R0                           ;21CC   08

21CD 8002           3490                        SJMP  Q21D1                        ;21CD   80 02

21CF C3             3491     Q21CF:             CLR   C                            ;21CF   C3

21D0 13             3492                        RRC   A                            ;21D0   13

21D1 D8FC           3493     Q21D1:             DJNZ  R0,Q21CF                     ;21D1   D8 FC

21D3 900499         3494                        MOV   DPTR,#0499H                  ;21D3   90 04 99

21D6 123204         3495                        LCALL Q3204                        ;21D6   12 32 04

21D9 E52C           3496     Q21D9:             MOV   A,2CH                        ;21D9   E5 2C

21DB B40119         3497                        CJNE  A,#01H,Q21F7                 ;21DB   B4 01 19

21DE 743B           3498                        MOV   A,#3BH                       ;21DE   74 3B

21E0 2D             3499                        ADD   A,R5                         ;21E0   2D

21E1 F8             3500                        MOV   R0,A                         ;21E1   F8

21E2 E6             3501                        MOV   A,@R0                        ;21E2   E6

21E3 24D0           3502                        ADD   A,#0D0H                      ;21E3   24 D0

21E5 FF             3503                        MOV   R7,A                         ;21E5   FF

21E6 7480           3504                        MOV   A,#80H                       ;21E6   74 80

21E8 A807           3505                        MOV   R0,07H                       ;21E8   A8 07

21EA 08             3506                        INC   R0                           ;21EA   08

21EB 8002           3507                        SJMP  Q21EF                        ;21EB   80 02

21ED C3             3508     Q21ED:             CLR   C                            ;21ED   C3

21EE 13             3509                        RRC   A                            ;21EE   13

21EF D8FC           3510     Q21EF:             DJNZ  R0,Q21ED                     ;21EF   D8 FC

21F1 900812         3511                        MOV   DPTR,#0812H                  ;21F1   90 08 12

21F4 123204         3512                        LCALL Q3204                        ;21F4   12 32 04

21F7 E52C           3513     Q21F7:             MOV   A,2CH                        ;21F7   E5 2C

21F9 6402           3514                        XRL   A,#02H                       ;21F9   64 02

21FB 6003           3515                        JZ    Q2200                        ;21FB   60 03

21FD 022568         3516                        LJMP  Q2568                        ;21FD   02 25 68

                    3517     ;==========================================================================

2200 743B           3518     Q2200:             MOV   A,#3BH                       ;2200   74 3B

2202 2D             3519                        ADD   A,R5                         ;2202   2D

2203 F8             3520                        MOV   R0,A                         ;2203   F8

2204 E6             3521                        MOV   A,@R0                        ;2204   E6

2205 24D0           3522                        ADD   A,#0D0H                      ;2205   24 D0

2207 FF             3523                        MOV   R7,A                         ;2207   FF

2208 7480           3524                        MOV   A,#80H                       ;2208   74 80

220A A807           3525                        MOV   R0,07H                       ;220A   A8 07

220C 08             3526                        INC   R0                           ;220C   08

220D 8002           3527                        SJMP  Q2211                        ;220D   80 02

220F C3             3528     Q220F:             CLR   C                            ;220F   C3

2210 13             3529                        RRC   A                            ;2210   13

2211 D8FC           3530     Q2211:             DJNZ  R0,Q220F                     ;2211   D8 FC

2213 FF             3531                        MOV   R7,A                         ;2213   FF

2214 ED             3532                        MOV   A,R5                         ;2214   ED

2215 900B8B         3533                        MOV   DPTR,#0B8BH                  ;2215   90 0B 8B

2218 0224DE         3534                        LJMP  Q24DE                        ;2218   02 24 DE

                    3535     ;==========================================================================

221B EC             3536     Q221B:             MOV   A,R4                         ;221B   EC

221C D3             3537                        SETB  C                            ;221C   D3

221D 9427           3538                        SUBB  A,#27H                       ;221D   94 27

221F 5003           3539                        JNC   Q2224                        ;221F   50 03

2221 0222A7         3540                        LJMP  Q22A7                        ;2221   02 22 A7

                    3541     ;==========================================================================

2224 7FB1           3542     Q2224:             MOV   R7,#0B1H                     ;2224   7F B1

A51 MACRO ASSEMBLER  __________V0_0                                                       12/04/2016 21:52:57 PAGE    62

2226 12317D         3543                        LCALL Q317D                        ;2226   12 31 7D

2229 ED             3544                        MOV   A,R5                         ;2229   ED

222A 2404           3545                        ADD   A,#04H                       ;222A   24 04

222C FF             3546                        MOV   R7,A                         ;222C   FF

222D E4             3547                        CLR   A                            ;222D   E4

222E 33             3548                        RLC   A                            ;222E   33

222F FE             3549                        MOV   R6,A                         ;222F   FE

2230 EF             3550                        MOV   A,R7                         ;2230   EF

2231 7804           3551                        MOV   R0,#04H                      ;2231   78 04

2233 CE             3552     Q2233:             XCH   A,R6                         ;2233   CE

2234 A2E7           3553                        MOV   C,ACC.7                      ;2234   A2 E7

2236 13             3554                        RRC   A                            ;2236   13

2237 CE             3555                        XCH   A,R6                         ;2237   CE

2238 13             3556                        RRC   A                            ;2238   13

2239 D8F8           3557                        DJNZ  R0,Q2233                     ;2239   D8 F8

223B 123171         3558                        LCALL Q3171                        ;223B   12 31 71

223E E52C           3559                        MOV   A,2CH                        ;223E   E5 2C

2240 701E           3560                        JNZ   Q2260                        ;2240   70 1E

2242 743B           3561                        MOV   A,#3BH                       ;2242   74 3B

2244 2D             3562                        ADD   A,R5                         ;2244   2D

2245 F8             3563                        MOV   R0,A                         ;2245   F8

2246 E6             3564                        MOV   A,@R0                        ;2246   E6

2247 24D8           3565                        ADD   A,#0D8H                      ;2247   24 D8

2249 FF             3566                        MOV   R7,A                         ;2249   FF

224A 7480           3567                        MOV   A,#80H                       ;224A   74 80

224C A807           3568                        MOV   R0,07H                       ;224C   A8 07

224E 08             3569                        INC   R0                           ;224E   08

224F 8002           3570                        SJMP  Q2253                        ;224F   80 02

2251 C3             3571     Q2251:             CLR   C                            ;2251   C3

2252 13             3572                        RRC   A                            ;2252   13

2253 D8FC           3573     Q2253:             DJNZ  R0,Q2251                     ;2253   D8 FC

2255 FF             3574                        MOV   R7,A                         ;2255   FF

2256 ED             3575                        MOV   A,R5                         ;2256   ED

2257 900518         3576                        MOV   DPTR,#0518H                  ;2257   90 05 18

225A 93             3577                        MOVC  A,@A+DPTR                    ;225A   93

225B 4F             3578                        ORL   A,R7                         ;225B   4F

225C FF             3579                        MOV   R7,A                         ;225C   FF

225D 123209         3580                        LCALL Q3209                        ;225D   12 32 09

2260 E52C           3581     Q2260:             MOV   A,2CH                        ;2260   E5 2C

2262 B4011E         3582                        CJNE  A,#01H,Q2283                 ;2262   B4 01 1E

2265 743B           3583                        MOV   A,#3BH                       ;2265   74 3B

2267 2D             3584                        ADD   A,R5                         ;2267   2D

2268 F8             3585                        MOV   R0,A                         ;2268   F8

2269 E6             3586                        MOV   A,@R0                        ;2269   E6

226A 24D8           3587                        ADD   A,#0D8H                      ;226A   24 D8

226C FF             3588                        MOV   R7,A                         ;226C   FF

226D 7480           3589                        MOV   A,#80H                       ;226D   74 80

226F A807           3590                        MOV   R0,07H                       ;226F   A8 07

2271 08             3591                        INC   R0                           ;2271   08

2272 8002           3592                        SJMP  Q2276                        ;2272   80 02

2274 C3             3593     Q2274:             CLR   C                            ;2274   C3

2275 13             3594                        RRC   A                            ;2275   13

2276 D8FC           3595     Q2276:             DJNZ  R0,Q2274                     ;2276   D8 FC

2278 FF             3596                        MOV   R7,A                         ;2278   FF

2279 ED             3597                        MOV   A,R5                         ;2279   ED

227A 900891         3598                        MOV   DPTR,#0891H                  ;227A   90 08 91

227D 93             3599                        MOVC  A,@A+DPTR                    ;227D   93

227E 4F             3600                        ORL   A,R7                         ;227E   4F

227F FF             3601                        MOV   R7,A                         ;227F   FF

2280 123209         3602                        LCALL Q3209                        ;2280   12 32 09

2283 E52C           3603     Q2283:             MOV   A,2CH                        ;2283   E5 2C

2285 6402           3604                        XRL   A,#02H                       ;2285   64 02

2287 6003           3605                        JZ    Q228C                        ;2287   60 03

2289 022568         3606                        LJMP  Q2568                        ;2289   02 25 68

                    3607     ;==========================================================================

228C 743B           3608     Q228C:             MOV   A,#3BH                       ;228C   74 3B

A51 MACRO ASSEMBLER  __________V0_0                                                       12/04/2016 21:52:57 PAGE    63

228E 2D             3609                        ADD   A,R5                         ;228E   2D

228F F8             3610                        MOV   R0,A                         ;228F   F8

2290 E6             3611                        MOV   A,@R0                        ;2290   E6

2291 24D8           3612                        ADD   A,#0D8H                      ;2291   24 D8

2293 FF             3613                        MOV   R7,A                         ;2293   FF

2294 7480           3614                        MOV   A,#80H                       ;2294   74 80

2296 A807           3615                        MOV   R0,07H                       ;2296   A8 07

2298 08             3616                        INC   R0                           ;2298   08

2299 8002           3617                        SJMP  Q229D                        ;2299   80 02

229B C3             3618     Q229B:             CLR   C                            ;229B   C3

229C 13             3619                        RRC   A                            ;229C   13

229D D8FC           3620     Q229D:             DJNZ  R0,Q229B                     ;229D   D8 FC

229F FF             3621                        MOV   R7,A                         ;229F   FF

22A0 ED             3622                        MOV   A,R5                         ;22A0   ED

22A1 900C0A         3623                        MOV   DPTR,#0C0AH                  ;22A1   90 0C 0A

22A4 0224DE         3624                        LJMP  Q24DE                        ;22A4   02 24 DE

                    3625     ;==========================================================================

22A7 743B           3626     Q22A7:             MOV   A,#3BH                       ;22A7   74 3B

22A9 2D             3627                        ADD   A,R5                         ;22A9   2D

22AA F8             3628                        MOV   R0,A                         ;22AA   F8

22AB E6             3629                        MOV   A,@R0                        ;22AB   E6

22AC FC             3630                        MOV   R4,A                         ;22AC   FC

22AD D3             3631                        SETB  C                            ;22AD   D3

22AE 941F           3632                        SUBB  A,#1FH                       ;22AE   94 1F

22B0 5003           3633                        JNC   Q22B5                        ;22B0   50 03

22B2 022338         3634                        LJMP  Q2338                        ;22B2   02 23 38

                    3635     ;==========================================================================

22B5 7FB2           3636     Q22B5:             MOV   R7,#0B2H                     ;22B5   7F B2

22B7 12317D         3637                        LCALL Q317D                        ;22B7   12 31 7D

22BA ED             3638                        MOV   A,R5                         ;22BA   ED

22BB 2404           3639                        ADD   A,#04H                       ;22BB   24 04

22BD FF             3640                        MOV   R7,A                         ;22BD   FF

22BE E4             3641                        CLR   A                            ;22BE   E4

22BF 33             3642                        RLC   A                            ;22BF   33

22C0 FE             3643                        MOV   R6,A                         ;22C0   FE

22C1 EF             3644                        MOV   A,R7                         ;22C1   EF

22C2 7804           3645                        MOV   R0,#04H                      ;22C2   78 04

22C4 CE             3646     Q22C4:             XCH   A,R6                         ;22C4   CE

22C5 A2E7           3647                        MOV   C,ACC.7                      ;22C5   A2 E7

22C7 13             3648                        RRC   A                            ;22C7   13

22C8 CE             3649                        XCH   A,R6                         ;22C8   CE

22C9 13             3650                        RRC   A                            ;22C9   13

22CA D8F8           3651                        DJNZ  R0,Q22C4                     ;22CA   D8 F8

22CC 123171         3652                        LCALL Q3171                        ;22CC   12 31 71

22CF E52C           3653                        MOV   A,2CH                        ;22CF   E5 2C

22D1 701E           3654                        JNZ   Q22F1                        ;22D1   70 1E

22D3 743B           3655                        MOV   A,#3BH                       ;22D3   74 3B

22D5 2D             3656                        ADD   A,R5                         ;22D5   2D

22D6 F8             3657                        MOV   R0,A                         ;22D6   F8

22D7 E6             3658                        MOV   A,@R0                        ;22D7   E6

22D8 24E0           3659                        ADD   A,#0E0H                      ;22D8   24 E0

22DA FF             3660                        MOV   R7,A                         ;22DA   FF

22DB 7480           3661                        MOV   A,#80H                       ;22DB   74 80

22DD A807           3662                        MOV   R0,07H                       ;22DD   A8 07

22DF 08             3663                        INC   R0                           ;22DF   08

22E0 8002           3664                        SJMP  Q22E4                        ;22E0   80 02

22E2 C3             3665     Q22E2:             CLR   C                            ;22E2   C3

22E3 13             3666                        RRC   A                            ;22E3   13

22E4 D8FC           3667     Q22E4:             DJNZ  R0,Q22E2                     ;22E4   D8 FC

22E6 FF             3668                        MOV   R7,A                         ;22E6   FF

22E7 ED             3669                        MOV   A,R5                         ;22E7   ED

22E8 900597         3670                        MOV   DPTR,#0597H                  ;22E8   90 05 97

22EB 93             3671                        MOVC  A,@A+DPTR                    ;22EB   93

22EC 4F             3672                        ORL   A,R7                         ;22EC   4F

22ED FF             3673                        MOV   R7,A                         ;22ED   FF

22EE 123209         3674                        LCALL Q3209                        ;22EE   12 32 09

A51 MACRO ASSEMBLER  __________V0_0                                                       12/04/2016 21:52:57 PAGE    64

22F1 E52C           3675     Q22F1:             MOV   A,2CH                        ;22F1   E5 2C

22F3 B4011E         3676                        CJNE  A,#01H,Q2314                 ;22F3   B4 01 1E

22F6 743B           3677                        MOV   A,#3BH                       ;22F6   74 3B

22F8 2D             3678                        ADD   A,R5                         ;22F8   2D

22F9 F8             3679                        MOV   R0,A                         ;22F9   F8

22FA E6             3680                        MOV   A,@R0                        ;22FA   E6

22FB 24E0           3681                        ADD   A,#0E0H                      ;22FB   24 E0

22FD FF             3682                        MOV   R7,A                         ;22FD   FF

22FE 7480           3683                        MOV   A,#80H                       ;22FE   74 80

2300 A807           3684                        MOV   R0,07H                       ;2300   A8 07

2302 08             3685                        INC   R0                           ;2302   08

2303 8002           3686                        SJMP  Q2307                        ;2303   80 02

2305 C3             3687     Q2305:             CLR   C                            ;2305   C3

2306 13             3688                        RRC   A                            ;2306   13

2307 D8FC           3689     Q2307:             DJNZ  R0,Q2305                     ;2307   D8 FC

2309 FF             3690                        MOV   R7,A                         ;2309   FF

230A ED             3691                        MOV   A,R5                         ;230A   ED

230B 900910         3692                        MOV   DPTR,#0910H                  ;230B   90 09 10

230E 93             3693                        MOVC  A,@A+DPTR                    ;230E   93

230F 4F             3694                        ORL   A,R7                         ;230F   4F

2310 FF             3695                        MOV   R7,A                         ;2310   FF

2311 123209         3696                        LCALL Q3209                        ;2311   12 32 09

2314 E52C           3697     Q2314:             MOV   A,2CH                        ;2314   E5 2C

2316 6402           3698                        XRL   A,#02H                       ;2316   64 02

2318 6003           3699                        JZ    Q231D                        ;2318   60 03

231A 022568         3700                        LJMP  Q2568                        ;231A   02 25 68

                    3701     ;==========================================================================

231D 743B           3702     Q231D:             MOV   A,#3BH                       ;231D   74 3B

231F 2D             3703                        ADD   A,R5                         ;231F   2D

2320 F8             3704                        MOV   R0,A                         ;2320   F8

2321 E6             3705                        MOV   A,@R0                        ;2321   E6

2322 24E0           3706                        ADD   A,#0E0H                      ;2322   24 E0

2324 FF             3707                        MOV   R7,A                         ;2324   FF

2325 7480           3708                        MOV   A,#80H                       ;2325   74 80

2327 A807           3709                        MOV   R0,07H                       ;2327   A8 07

2329 08             3710                        INC   R0                           ;2329   08

232A 8002           3711                        SJMP  Q232E                        ;232A   80 02

232C C3             3712     Q232C:             CLR   C                            ;232C   C3

232D 13             3713                        RRC   A                            ;232D   13

232E D8FC           3714     Q232E:             DJNZ  R0,Q232C                     ;232E   D8 FC

2330 FF             3715                        MOV   R7,A                         ;2330   FF

2331 ED             3716                        MOV   A,R5                         ;2331   ED

2332 900C89         3717                        MOV   DPTR,#0C89H                  ;2332   90 0C 89

2335 0224DE         3718                        LJMP  Q24DE                        ;2335   02 24 DE

                    3719     ;==========================================================================

2338 EC             3720     Q2338:             MOV   A,R4                         ;2338   EC

2339 D3             3721                        SETB  C                            ;2339   D3

233A 9417           3722                        SUBB  A,#17H                       ;233A   94 17

233C 5003           3723                        JNC   Q2341                        ;233C   50 03

233E 0223C4         3724                        LJMP  Q23C4                        ;233E   02 23 C4

                    3725     ;==========================================================================

2341 7FB3           3726     Q2341:             MOV   R7,#0B3H                     ;2341   7F B3

2343 12317D         3727                        LCALL Q317D                        ;2343   12 31 7D

2346 ED             3728                        MOV   A,R5                         ;2346   ED

2347 2404           3729                        ADD   A,#04H                       ;2347   24 04

2349 FF             3730                        MOV   R7,A                         ;2349   FF

234A E4             3731                        CLR   A                            ;234A   E4

234B 33             3732                        RLC   A                            ;234B   33

234C FE             3733                        MOV   R6,A                         ;234C   FE

234D EF             3734                        MOV   A,R7                         ;234D   EF

234E 7804           3735                        MOV   R0,#04H                      ;234E   78 04

2350 CE             3736     Q2350:             XCH   A,R6                         ;2350   CE

2351 A2E7           3737                        MOV   C,ACC.7                      ;2351   A2 E7

2353 13             3738                        RRC   A                            ;2353   13

2354 CE             3739                        XCH   A,R6                         ;2354   CE

2355 13             3740                        RRC   A                            ;2355   13

A51 MACRO ASSEMBLER  __________V0_0                                                       12/04/2016 21:52:57 PAGE    65

2356 D8F8           3741                        DJNZ  R0,Q2350                     ;2356   D8 F8

2358 123171         3742                        LCALL Q3171                        ;2358   12 31 71

235B E52C           3743                        MOV   A,2CH                        ;235B   E5 2C

235D 701E           3744                        JNZ   Q237D                        ;235D   70 1E

235F 743B           3745                        MOV   A,#3BH                       ;235F   74 3B

2361 2D             3746                        ADD   A,R5                         ;2361   2D

2362 F8             3747                        MOV   R0,A                         ;2362   F8

2363 E6             3748                        MOV   A,@R0                        ;2363   E6

2364 24E8           3749                        ADD   A,#0E8H                      ;2364   24 E8

2366 FF             3750                        MOV   R7,A                         ;2366   FF

2367 7480           3751                        MOV   A,#80H                       ;2367   74 80

2369 A807           3752                        MOV   R0,07H                       ;2369   A8 07

236B 08             3753                        INC   R0                           ;236B   08

236C 8002           3754                        SJMP  Q2370                        ;236C   80 02

236E C3             3755     Q236E:             CLR   C                            ;236E   C3

236F 13             3756                        RRC   A                            ;236F   13

2370 D8FC           3757     Q2370:             DJNZ  R0,Q236E                     ;2370   D8 FC

2372 FF             3758                        MOV   R7,A                         ;2372   FF

2373 ED             3759                        MOV   A,R5                         ;2373   ED

2374 900616         3760                        MOV   DPTR,#0616H                  ;2374   90 06 16

2377 93             3761                        MOVC  A,@A+DPTR                    ;2377   93

2378 4F             3762                        ORL   A,R7                         ;2378   4F

2379 FF             3763                        MOV   R7,A                         ;2379   FF

237A 123209         3764                        LCALL Q3209                        ;237A   12 32 09

237D E52C           3765     Q237D:             MOV   A,2CH                        ;237D   E5 2C

237F B4011E         3766                        CJNE  A,#01H,Q23A0                 ;237F   B4 01 1E

2382 743B           3767                        MOV   A,#3BH                       ;2382   74 3B

2384 2D             3768                        ADD   A,R5                         ;2384   2D

2385 F8             3769                        MOV   R0,A                         ;2385   F8

2386 E6             3770                        MOV   A,@R0                        ;2386   E6

2387 24E8           3771                        ADD   A,#0E8H                      ;2387   24 E8

2389 FF             3772                        MOV   R7,A                         ;2389   FF

238A 7480           3773                        MOV   A,#80H                       ;238A   74 80

238C A807           3774                        MOV   R0,07H                       ;238C   A8 07

238E 08             3775                        INC   R0                           ;238E   08

238F 8002           3776                        SJMP  Q2393                        ;238F   80 02

2391 C3             3777     Q2391:             CLR   C                            ;2391   C3

2392 13             3778                        RRC   A                            ;2392   13

2393 D8FC           3779     Q2393:             DJNZ  R0,Q2391                     ;2393   D8 FC

2395 FF             3780                        MOV   R7,A                         ;2395   FF

2396 ED             3781                        MOV   A,R5                         ;2396   ED

2397 90098F         3782                        MOV   DPTR,#098FH                  ;2397   90 09 8F

239A 93             3783                        MOVC  A,@A+DPTR                    ;239A   93

239B 4F             3784                        ORL   A,R7                         ;239B   4F

239C FF             3785                        MOV   R7,A                         ;239C   FF

239D 123209         3786                        LCALL Q3209                        ;239D   12 32 09

23A0 E52C           3787     Q23A0:             MOV   A,2CH                        ;23A0   E5 2C

23A2 6402           3788                        XRL   A,#02H                       ;23A2   64 02

23A4 6003           3789                        JZ    Q23A9                        ;23A4   60 03

23A6 022568         3790                        LJMP  Q2568                        ;23A6   02 25 68

                    3791     ;==========================================================================

23A9 743B           3792     Q23A9:             MOV   A,#3BH                       ;23A9   74 3B

23AB 2D             3793                        ADD   A,R5                         ;23AB   2D

23AC F8             3794                        MOV   R0,A                         ;23AC   F8

23AD E6             3795                        MOV   A,@R0                        ;23AD   E6

23AE 24E8           3796                        ADD   A,#0E8H                      ;23AE   24 E8

23B0 FF             3797                        MOV   R7,A                         ;23B0   FF

23B1 7480           3798                        MOV   A,#80H                       ;23B1   74 80

23B3 A807           3799                        MOV   R0,07H                       ;23B3   A8 07

23B5 08             3800                        INC   R0                           ;23B5   08

23B6 8002           3801                        SJMP  Q23BA                        ;23B6   80 02

23B8 C3             3802     Q23B8:             CLR   C                            ;23B8   C3

23B9 13             3803                        RRC   A                            ;23B9   13

23BA D8FC           3804     Q23BA:             DJNZ  R0,Q23B8                     ;23BA   D8 FC

23BC FF             3805                        MOV   R7,A                         ;23BC   FF

23BD ED             3806                        MOV   A,R5                         ;23BD   ED

A51 MACRO ASSEMBLER  __________V0_0                                                       12/04/2016 21:52:57 PAGE    66

23BE 900D08         3807                        MOV   DPTR,#0D08H                  ;23BE   90 0D 08

23C1 0224DE         3808                        LJMP  Q24DE                        ;23C1   02 24 DE

                    3809     ;==========================================================================

23C4 743B           3810     Q23C4:             MOV   A,#3BH                       ;23C4   74 3B

23C6 2D             3811                        ADD   A,R5                         ;23C6   2D

23C7 F8             3812                        MOV   R0,A                         ;23C7   F8

23C8 E6             3813                        MOV   A,@R0                        ;23C8   E6

23C9 FC             3814                        MOV   R4,A                         ;23C9   FC

23CA D3             3815                        SETB  C                            ;23CA   D3

23CB 940F           3816                        SUBB  A,#0FH                       ;23CB   94 0F

23CD 5003           3817                        JNC   Q23D2                        ;23CD   50 03

23CF 022455         3818                        LJMP  Q2455                        ;23CF   02 24 55

                    3819     ;==========================================================================

23D2 7FB4           3820     Q23D2:             MOV   R7,#0B4H                     ;23D2   7F B4

23D4 12317D         3821                        LCALL Q317D                        ;23D4   12 31 7D

23D7 ED             3822                        MOV   A,R5                         ;23D7   ED

23D8 2404           3823                        ADD   A,#04H                       ;23D8   24 04

23DA FF             3824                        MOV   R7,A                         ;23DA   FF

23DB E4             3825                        CLR   A                            ;23DB   E4

23DC 33             3826                        RLC   A                            ;23DC   33

23DD FE             3827                        MOV   R6,A                         ;23DD   FE

23DE EF             3828                        MOV   A,R7                         ;23DE   EF

23DF 7804           3829                        MOV   R0,#04H                      ;23DF   78 04

23E1 CE             3830     Q23E1:             XCH   A,R6                         ;23E1   CE

23E2 A2E7           3831                        MOV   C,ACC.7                      ;23E2   A2 E7

23E4 13             3832                        RRC   A                            ;23E4   13

23E5 CE             3833                        XCH   A,R6                         ;23E5   CE

23E6 13             3834                        RRC   A                            ;23E6   13

23E7 D8F8           3835                        DJNZ  R0,Q23E1                     ;23E7   D8 F8

23E9 123171         3836                        LCALL Q3171                        ;23E9   12 31 71

23EC E52C           3837                        MOV   A,2CH                        ;23EC   E5 2C

23EE 701E           3838                        JNZ   Q240E                        ;23EE   70 1E

23F0 743B           3839                        MOV   A,#3BH                       ;23F0   74 3B

23F2 2D             3840                        ADD   A,R5                         ;23F2   2D

23F3 F8             3841                        MOV   R0,A                         ;23F3   F8

23F4 E6             3842                        MOV   A,@R0                        ;23F4   E6

23F5 24F0           3843                        ADD   A,#0F0H                      ;23F5   24 F0

23F7 FF             3844                        MOV   R7,A                         ;23F7   FF

23F8 7480           3845                        MOV   A,#80H                       ;23F8   74 80

23FA A807           3846                        MOV   R0,07H                       ;23FA   A8 07

23FC 08             3847                        INC   R0                           ;23FC   08

23FD 8002           3848                        SJMP  Q2401                        ;23FD   80 02

23FF C3             3849     Q23FF:             CLR   C                            ;23FF   C3

2400 13             3850                        RRC   A                            ;2400   13

2401 D8FC           3851     Q2401:             DJNZ  R0,Q23FF                     ;2401   D8 FC

2403 FF             3852                        MOV   R7,A                         ;2403   FF

2404 ED             3853                        MOV   A,R5                         ;2404   ED

2405 900695         3854                        MOV   DPTR,#0695H                  ;2405   90 06 95

2408 93             3855                        MOVC  A,@A+DPTR                    ;2408   93

2409 4F             3856                        ORL   A,R7                         ;2409   4F

240A FF             3857                        MOV   R7,A                         ;240A   FF

240B 123209         3858                        LCALL Q3209                        ;240B   12 32 09

240E E52C           3859     Q240E:             MOV   A,2CH                        ;240E   E5 2C

2410 B4011E         3860                        CJNE  A,#01H,Q2431                 ;2410   B4 01 1E

2413 743B           3861                        MOV   A,#3BH                       ;2413   74 3B

2415 2D             3862                        ADD   A,R5                         ;2415   2D

2416 F8             3863                        MOV   R0,A                         ;2416   F8

2417 E6             3864                        MOV   A,@R0                        ;2417   E6

2418 24F0           3865                        ADD   A,#0F0H                      ;2418   24 F0

241A FF             3866                        MOV   R7,A                         ;241A   FF

241B 7480           3867                        MOV   A,#80H                       ;241B   74 80

241D A807           3868                        MOV   R0,07H                       ;241D   A8 07

241F 08             3869                        INC   R0                           ;241F   08

2420 8002           3870                        SJMP  Q2424                        ;2420   80 02

2422 C3             3871     Q2422:             CLR   C                            ;2422   C3

2423 13             3872                        RRC   A                            ;2423   13

A51 MACRO ASSEMBLER  __________V0_0                                                       12/04/2016 21:52:57 PAGE    67

2424 D8FC           3873     Q2424:             DJNZ  R0,Q2422                     ;2424   D8 FC

2426 FF             3874                        MOV   R7,A                         ;2426   FF

2427 ED             3875                        MOV   A,R5                         ;2427   ED

2428 900A0E         3876                        MOV   DPTR,#0A0EH                  ;2428   90 0A 0E

242B 93             3877                        MOVC  A,@A+DPTR                    ;242B   93

242C 4F             3878                        ORL   A,R7                         ;242C   4F

242D FF             3879                        MOV   R7,A                         ;242D   FF

242E 123209         3880                        LCALL Q3209                        ;242E   12 32 09

2431 E52C           3881     Q2431:             MOV   A,2CH                        ;2431   E5 2C

2433 6402           3882                        XRL   A,#02H                       ;2433   64 02

2435 6003           3883                        JZ    Q243A                        ;2435   60 03

2437 022568         3884                        LJMP  Q2568                        ;2437   02 25 68

                    3885     ;==========================================================================

243A 743B           3886     Q243A:             MOV   A,#3BH                       ;243A   74 3B

243C 2D             3887                        ADD   A,R5                         ;243C   2D

243D F8             3888                        MOV   R0,A                         ;243D   F8

243E E6             3889                        MOV   A,@R0                        ;243E   E6

243F 24F0           3890                        ADD   A,#0F0H                      ;243F   24 F0

2441 FF             3891                        MOV   R7,A                         ;2441   FF

2442 7480           3892                        MOV   A,#80H                       ;2442   74 80

2444 A807           3893                        MOV   R0,07H                       ;2444   A8 07

2446 08             3894                        INC   R0                           ;2446   08

2447 8002           3895                        SJMP  Q244B                        ;2447   80 02

2449 C3             3896     Q2449:             CLR   C                            ;2449   C3

244A 13             3897                        RRC   A                            ;244A   13

244B D8FC           3898     Q244B:             DJNZ  R0,Q2449                     ;244B   D8 FC

244D FF             3899                        MOV   R7,A                         ;244D   FF

244E ED             3900                        MOV   A,R5                         ;244E   ED

244F 900D87         3901                        MOV   DPTR,#0D87H                  ;244F   90 0D 87

2452 0224DE         3902                        LJMP  Q24DE                        ;2452   02 24 DE

                    3903     ;==========================================================================

2455 EC             3904     Q2455:             MOV   A,R4                         ;2455   EC

2456 D3             3905                        SETB  C                            ;2456   D3

2457 9407           3906                        SUBB  A,#07H                       ;2457   94 07

2459 5003           3907                        JNC   Q245E                        ;2459   50 03

245B 0224E2         3908                        LJMP  Q24E2                        ;245B   02 24 E2

                    3909     ;==========================================================================

245E 7FB5           3910     Q245E:             MOV   R7,#0B5H                     ;245E   7F B5

2460 12317D         3911                        LCALL Q317D                        ;2460   12 31 7D

2463 ED             3912                        MOV   A,R5                         ;2463   ED

2464 2404           3913                        ADD   A,#04H                       ;2464   24 04

2466 FF             3914                        MOV   R7,A                         ;2466   FF

2467 E4             3915                        CLR   A                            ;2467   E4

2468 33             3916                        RLC   A                            ;2468   33

2469 FE             3917                        MOV   R6,A                         ;2469   FE

246A EF             3918                        MOV   A,R7                         ;246A   EF

246B 7804           3919                        MOV   R0,#04H                      ;246B   78 04

246D CE             3920     Q246D:             XCH   A,R6                         ;246D   CE

246E A2E7           3921                        MOV   C,ACC.7                      ;246E   A2 E7

2470 13             3922                        RRC   A                            ;2470   13

2471 CE             3923                        XCH   A,R6                         ;2471   CE

2472 13             3924                        RRC   A                            ;2472   13

2473 D8F8           3925                        DJNZ  R0,Q246D                     ;2473   D8 F8

2475 123171         3926                        LCALL Q3171                        ;2475   12 31 71

2478 E52C           3927                        MOV   A,2CH                        ;2478   E5 2C

247A 701E           3928                        JNZ   Q249A                        ;247A   70 1E

247C 743B           3929                        MOV   A,#3BH                       ;247C   74 3B

247E 2D             3930                        ADD   A,R5                         ;247E   2D

247F F8             3931                        MOV   R0,A                         ;247F   F8

2480 E6             3932                        MOV   A,@R0                        ;2480   E6

2481 24F8           3933                        ADD   A,#0F8H                      ;2481   24 F8

2483 FF             3934                        MOV   R7,A                         ;2483   FF

2484 7480           3935                        MOV   A,#80H                       ;2484   74 80

2486 A807           3936                        MOV   R0,07H                       ;2486   A8 07

2488 08             3937                        INC   R0                           ;2488   08

2489 8002           3938                        SJMP  Q248D                        ;2489   80 02

A51 MACRO ASSEMBLER  __________V0_0                                                       12/04/2016 21:52:57 PAGE    68

248B C3             3939     Q248B:             CLR   C                            ;248B   C3

248C 13             3940                        RRC   A                            ;248C   13

248D D8FC           3941     Q248D:             DJNZ  R0,Q248B                     ;248D   D8 FC

248F FF             3942                        MOV   R7,A                         ;248F   FF

2490 ED             3943                        MOV   A,R5                         ;2490   ED

2491 900714         3944                        MOV   DPTR,#0714H                  ;2491   90 07 14

2494 93             3945                        MOVC  A,@A+DPTR                    ;2494   93

2495 4F             3946                        ORL   A,R7                         ;2495   4F

2496 FF             3947                        MOV   R7,A                         ;2496   FF

2497 123209         3948                        LCALL Q3209                        ;2497   12 32 09

249A E52C           3949     Q249A:             MOV   A,2CH                        ;249A   E5 2C

249C B4011E         3950                        CJNE  A,#01H,Q24BD                 ;249C   B4 01 1E

249F 743B           3951                        MOV   A,#3BH                       ;249F   74 3B

24A1 2D             3952                        ADD   A,R5                         ;24A1   2D

24A2 F8             3953                        MOV   R0,A                         ;24A2   F8

24A3 E6             3954                        MOV   A,@R0                        ;24A3   E6

24A4 24F8           3955                        ADD   A,#0F8H                      ;24A4   24 F8

24A6 FF             3956                        MOV   R7,A                         ;24A6   FF

24A7 7480           3957                        MOV   A,#80H                       ;24A7   74 80

24A9 A807           3958                        MOV   R0,07H                       ;24A9   A8 07

24AB 08             3959                        INC   R0                           ;24AB   08

24AC 8002           3960                        SJMP  Q24B0                        ;24AC   80 02

24AE C3             3961     Q24AE:             CLR   C                            ;24AE   C3

24AF 13             3962                        RRC   A                            ;24AF   13

24B0 D8FC           3963     Q24B0:             DJNZ  R0,Q24AE                     ;24B0   D8 FC

24B2 FF             3964                        MOV   R7,A                         ;24B2   FF

24B3 ED             3965                        MOV   A,R5                         ;24B3   ED

24B4 900A8D         3966                        MOV   DPTR,#0A8DH                  ;24B4   90 0A 8D

24B7 93             3967                        MOVC  A,@A+DPTR                    ;24B7   93

24B8 4F             3968                        ORL   A,R7                         ;24B8   4F

24B9 FF             3969                        MOV   R7,A                         ;24B9   FF

24BA 123209         3970                        LCALL Q3209                        ;24BA   12 32 09

24BD E52C           3971     Q24BD:             MOV   A,2CH                        ;24BD   E5 2C

24BF 6402           3972                        XRL   A,#02H                       ;24BF   64 02

24C1 6003           3973                        JZ    Q24C6                        ;24C1   60 03

24C3 022568         3974                        LJMP  Q2568                        ;24C3   02 25 68

                    3975     ;==========================================================================

24C6 743B           3976     Q24C6:             MOV   A,#3BH                       ;24C6   74 3B

24C8 2D             3977                        ADD   A,R5                         ;24C8   2D

24C9 F8             3978                        MOV   R0,A                         ;24C9   F8

24CA E6             3979                        MOV   A,@R0                        ;24CA   E6

24CB 24F8           3980                        ADD   A,#0F8H                      ;24CB   24 F8

24CD FF             3981                        MOV   R7,A                         ;24CD   FF

24CE 7480           3982                        MOV   A,#80H                       ;24CE   74 80

24D0 A807           3983                        MOV   R0,07H                       ;24D0   A8 07

24D2 08             3984                        INC   R0                           ;24D2   08

24D3 8002           3985                        SJMP  Q24D7                        ;24D3   80 02

24D5 C3             3986     Q24D5:             CLR   C                            ;24D5   C3

24D6 13             3987                        RRC   A                            ;24D6   13

24D7 D8FC           3988     Q24D7:             DJNZ  R0,Q24D5                     ;24D7   D8 FC

24D9 FF             3989                        MOV   R7,A                         ;24D9   FF

24DA ED             3990                        MOV   A,R5                         ;24DA   ED

24DB 900E06         3991                        MOV   DPTR,#0E06H                  ;24DB   90 0E 06

24DE 93             3992     Q24DE:             MOVC  A,@A+DPTR                    ;24DE   93

24DF 022563         3993                        LJMP  Q2563                        ;24DF   02 25 63

                    3994     ;==========================================================================

24E2 743B           3995     Q24E2:             MOV   A,#3BH                       ;24E2   74 3B

24E4 2D             3996                        ADD   A,R5                         ;24E4   2D

24E5 F8             3997                        MOV   R0,A                         ;24E5   F8

24E6 E6             3998                        MOV   A,@R0                        ;24E6   E6

24E7 C3             3999                        CLR   C                            ;24E7   C3

24E8 9400           4000                        SUBB  A,#00H                       ;24E8   94 00

24EA 407C           4001                        JC    Q2568                        ;24EA   40 7C

24EC 7FB6           4002                        MOV   R7,#0B6H                     ;24EC   7F B6

24EE 12317D         4003                        LCALL Q317D                        ;24EE   12 31 7D

24F1 ED             4004                        MOV   A,R5                         ;24F1   ED

A51 MACRO ASSEMBLER  __________V0_0                                                       12/04/2016 21:52:57 PAGE    69

24F2 2404           4005                        ADD   A,#04H                       ;24F2   24 04

24F4 FF             4006                        MOV   R7,A                         ;24F4   FF

24F5 E4             4007                        CLR   A                            ;24F5   E4

24F6 33             4008                        RLC   A                            ;24F6   33

24F7 FE             4009                        MOV   R6,A                         ;24F7   FE

24F8 EF             4010                        MOV   A,R7                         ;24F8   EF

24F9 7804           4011                        MOV   R0,#04H                      ;24F9   78 04

24FB CE             4012     Q24FB:             XCH   A,R6                         ;24FB   CE

24FC A2E7           4013                        MOV   C,ACC.7                      ;24FC   A2 E7

24FE 13             4014                        RRC   A                            ;24FE   13

24FF CE             4015                        XCH   A,R6                         ;24FF   CE

2500 13             4016                        RRC   A                            ;2500   13

2501 D8F8           4017                        DJNZ  R0,Q24FB                     ;2501   D8 F8

2503 123171         4018                        LCALL Q3171                        ;2503   12 31 71

2506 E52C           4019                        MOV   A,2CH                        ;2506   E5 2C

2508 701C           4020                        JNZ   Q2526                        ;2508   70 1C

250A ED             4021                        MOV   A,R5                         ;250A   ED

250B 900793         4022                        MOV   DPTR,#0793H                  ;250B   90 07 93

250E 93             4023                        MOVC  A,@A+DPTR                    ;250E   93

250F FF             4024                        MOV   R7,A                         ;250F   FF

2510 743B           4025                        MOV   A,#3BH                       ;2510   74 3B

2512 2D             4026                        ADD   A,R5                         ;2512   2D

2513 F8             4027                        MOV   R0,A                         ;2513   F8

2514 E6             4028                        MOV   A,@R0                        ;2514   E6

2515 FE             4029                        MOV   R6,A                         ;2515   FE

2516 7480           4030                        MOV   A,#80H                       ;2516   74 80

2518 A806           4031                        MOV   R0,06H                       ;2518   A8 06

251A 08             4032                        INC   R0                           ;251A   08

251B 8002           4033                        SJMP  Q251F                        ;251B   80 02

251D C3             4034     Q251D:             CLR   C                            ;251D   C3

251E 13             4035                        RRC   A                            ;251E   13

251F D8FC           4036     Q251F:             DJNZ  R0,Q251D                     ;251F   D8 FC

2521 4F             4037                        ORL   A,R7                         ;2521   4F

2522 FF             4038                        MOV   R7,A                         ;2522   FF

2523 123209         4039                        LCALL Q3209                        ;2523   12 32 09

2526 E52C           4040     Q2526:             MOV   A,2CH                        ;2526   E5 2C

2528 B4011C         4041                        CJNE  A,#01H,Q2547                 ;2528   B4 01 1C

252B ED             4042                        MOV   A,R5                         ;252B   ED

252C 900B0C         4043                        MOV   DPTR,#0B0CH                  ;252C   90 0B 0C

252F 93             4044                        MOVC  A,@A+DPTR                    ;252F   93

2530 FF             4045                        MOV   R7,A                         ;2530   FF

2531 743B           4046                        MOV   A,#3BH                       ;2531   74 3B

2533 2D             4047                        ADD   A,R5                         ;2533   2D

2534 F8             4048                        MOV   R0,A                         ;2534   F8

2535 E6             4049                        MOV   A,@R0                        ;2535   E6

2536 FE             4050                        MOV   R6,A                         ;2536   FE

2537 7480           4051                        MOV   A,#80H                       ;2537   74 80

2539 A806           4052                        MOV   R0,06H                       ;2539   A8 06

253B 08             4053                        INC   R0                           ;253B   08

253C 8002           4054                        SJMP  Q2540                        ;253C   80 02

253E C3             4055     Q253E:             CLR   C                            ;253E   C3

253F 13             4056                        RRC   A                            ;253F   13

2540 D8FC           4057     Q2540:             DJNZ  R0,Q253E                     ;2540   D8 FC

2542 4F             4058                        ORL   A,R7                         ;2542   4F

2543 FF             4059                        MOV   R7,A                         ;2543   FF

2544 123209         4060                        LCALL Q3209                        ;2544   12 32 09

2547 E52C           4061     Q2547:             MOV   A,2CH                        ;2547   E5 2C

2549 B4021C         4062                        CJNE  A,#02H,Q2568                 ;2549   B4 02 1C

254C ED             4063                        MOV   A,R5                         ;254C   ED

254D 900E85         4064                        MOV   DPTR,#0E85H                  ;254D   90 0E 85

2550 93             4065                        MOVC  A,@A+DPTR                    ;2550   93

2551 FF             4066                        MOV   R7,A                         ;2551   FF

2552 743B           4067                        MOV   A,#3BH                       ;2552   74 3B

2554 2D             4068                        ADD   A,R5                         ;2554   2D

2555 F8             4069                        MOV   R0,A                         ;2555   F8

2556 E6             4070                        MOV   A,@R0                        ;2556   E6

A51 MACRO ASSEMBLER  __________V0_0                                                       12/04/2016 21:52:57 PAGE    70

2557 FE             4071                        MOV   R6,A                         ;2557   FE

2558 7480           4072                        MOV   A,#80H                       ;2558   74 80

255A A806           4073                        MOV   R0,06H                       ;255A   A8 06

255C 08             4074                        INC   R0                           ;255C   08

255D 8002           4075                        SJMP  Q2561                        ;255D   80 02

255F C3             4076     Q255F:             CLR   C                            ;255F   C3

2560 13             4077                        RRC   A                            ;2560   13

2561 D8FC           4078     Q2561:             DJNZ  R0,Q255F                     ;2561   D8 FC

2563 4F             4079     Q2563:             ORL   A,R7                         ;2563   4F

2564 FF             4080                        MOV   R7,A                         ;2564   FF

2565 123209         4081                        LCALL Q3209                        ;2565   12 32 09

2568 0D             4082     Q2568:             INC   R5                           ;2568   0D

2569 ED             4083                        MOV   A,R5                         ;2569   ED

256A 647F           4084                        XRL   A,#7FH                       ;256A   64 7F

256C 6003           4085                        JZ    Q2571                        ;256C   60 03

256E 022197         4086                        LJMP  Q2197                        ;256E   02 21 97

                    4087     ;==========================================================================

2571 22             4088     Q2571:             RET                                ;2571   22

                    4089     ;==========================================================================

2572 7777772E       4090     Q2572:           DB  77H, 77H, 77H, 2EH, 63H, 72H, 79H, 73H     ;www.crys

2576 63727973                
257A 74616C72       4091     Q257A:           DB  74H, 61H, 6CH, 72H, 61H, 64H, 69H, 6FH     ;talradio

257E 6164696F                
2582 2E636E00       4092     Q2582:           DB  2EH, 63H, 6EH, 00H, 00H, 00H, 10H,0D0H     ;.cn.....

2586 000010D0                
258A B0880800       4093     Q258A:           DB 0B0H, 88H, 08H, 00H,0F0H, 10H, 12H, 14H     ;........

258E F0101214                
2592 08080000       4094     Q2592:           DB  08H, 08H, 00H, 00H, 04H, 02H, 01H, 07H     ;........

2596 04020107                
259A 0423100C       4095     Q259A:           DB  04H, 23H, 10H, 0CH, 03H, 00H, 00H, 00H     ;.#......

259E 03000000                
25A2 00000000       4096     Q25A2:           DB  00H, 00H, 00H, 00H, 00H, 00H, 00H, 08H     ;........

25A6 00000008                
25AA 08886818       4097     Q25AA:           DB  08H, 88H, 68H, 18H, 04H, 84H, 84H, 84H     ;..h.....

25AE 04848484                
25B2 04000000       4098     Q25B2:           DB  04H, 00H, 00H, 00H, 08H, 08H, 04H, 02H     ;........

25B6 08080402                
25BA 011F1111       4099     Q25BA:           DB  01H, 1FH, 11H, 11H, 09H, 08H, 0CH, 0BH     ;........

25BE 09080C0B                
25C2 00000000       4100     Q25C2:           DB  00H, 00H, 00H, 00H, 00H,0E0H, 00H, 00H     ;........

25C6 00E00000                
25CA FE0040A0       4101     Q25CA:           DB 0FEH, 00H, 40H,0A0H, 38H, 26H,0E0H, 10H     ;..@.8&..

25CE 3826E010                
25D2 10000000       4102     Q25D2:           DB  10H, 00H, 00H, 00H, 00H, 07H, 02H, 01H     ;........

25D6 00070201                
25DA 3F101008       4103     Q25DA:           DB  3FH, 10H, 10H, 08H, 05H, 02H, 05H, 08H     ;?.......

25DE 05020508                
25E2 18101000       4104     Q25E2:           DB  18H, 10H, 10H, 00H, 80H, 80H, 80H, 80H     ;........

25E6 80808080                
25EA 8898694B       4105     Q25EA:           DB  88H, 98H, 69H, 4BH, 64H, 5CH, 44H, 40H     ;..iKd\D@

25EE 645C4440                
25F2 40404000       4106     Q25F2:           DB  40H, 40H, 40H, 00H, 00H, 00H, 00H, 00H     ;@@@.....

25F6 00000000                
25FA 007E2A2A       4107     Q25FA:           DB  00H, 7EH, 2AH, 2AH, 29H, 61H, 3FH, 00H     ;.~**)a?.

25FE 29613F00                
2602 00000000       4108     Q2602:           DB  00H, 00H, 00H, 00H, 00H, 20H, 20H,0FFH     ;........

2606 002020FF                
260A 90100000       4109     Q260A:           DB  90H, 10H, 00H, 00H,0F0H, 08H,0E8H, 18H     ;........

260E F008E818                
2612 00000000       4110     Q2612:           DB  00H, 00H, 00H, 00H, 04H, 02H, 01H, 3FH     ;.......?

2616 0402013F                
261A 00110806       4111     Q261A:           DB  00H, 11H, 08H, 06H, 01H, 00H, 07H, 08H     ;........

261E 01000708                
2622 08080E00       4112     Q2622:           DB  08H, 08H, 0EH, 00H, 80H, 80H, 40H,0C4H     ;......@.

2626 808040C4                
262A 88402090       4113     Q262A:           DB  88H, 40H, 20H, 90H, 0EH, 08H, 10H, 20H     ;.@......

A51 MACRO ASSEMBLER  __________V0_0                                                       12/04/2016 21:52:57 PAGE    71

262E 0E081020                
2632 60404000       4114     Q2632:           DB  60H, 40H, 40H, 00H, 00H, 00H, 00H, 3FH     ;`@@....?

2636 0000003F                
263A 0804001F       4115     Q263A:           DB  08H, 04H, 00H, 1FH, 22H, 22H, 21H, 21H     ;....""!!

263E 22222121                
2642 18000000       4116     Q2642:           DB  18H, 00H, 00H, 00H, 00H, 40H, 40H,0FEH     ;.....@@.

2646 004040FE                
264A 20A08088       4117     Q264A:           DB  20H,0A0H, 80H, 88H, 88H, 48H, 44H, 44H     ;.....HDD

264E 88484444                
2652 40400000       4118     Q2652:           DB  40H, 40H, 00H, 00H, 08H, 08H, 04H, 07H     ;@@......

2656 08080407                
265A 02021814       4119     Q265A:           DB  02H, 02H, 18H, 14H, 0BH, 08H, 0AH, 0CH     ;........

265E 0B080A0C                
2662 18000000       4120     Q2662:           DB  18H, 00H, 00H, 00H, 00H, 78H, 80H,0F8H     ;.....x..

2666 007880F8                
266A 80780000       4121     Q266A:           DB  80H, 78H, 00H, 00H, 03H, 00H, 03H, 00H     ;.x......

266E 03000300                
2672 007880F8       4122     Q2672:           DB  00H, 78H, 80H,0F8H, 80H, 78H, 00H, 00H     ;.x...x..

2676 80780000                
267A 03000300       4123     Q267A:           DB  03H, 00H, 03H, 00H, 00H, 78H, 80H,0F8H     ;.....x..

267E 007880F8                
2682 80780000       4124     Q2682:           DB  80H, 78H, 00H, 00H, 03H, 00H, 03H, 00H     ;.x......

2686 03000300                
268A 00000000       4125     Q268A:           DB  00H, 00H, 00H, 00H, 00H, 00H, 00H, 00H     ;........

268E 00000000                
2692 00030000       4126     Q2692:           DB  00H, 03H, 00H, 00H, 00H,0F0H, 08H, 08H     ;........

2696 00F00808                
269A 08100001       4127     Q269A:           DB  08H, 10H, 00H, 01H, 02H, 02H, 02H, 01H     ;........

269E 02020201                
26A2 0000F810       4128     Q26A2:           DB  00H, 00H,0F8H, 10H, 08H, 08H, 00H, 00H     ;........

26A6 08080000                
26AA 03000000       4129     Q26AA:           DB  03H, 00H, 00H, 00H, 00H, 38H,0C0H, 00H     ;.....8..

26AE 0038C000                
26B2 C0380004       4130     Q26B2:           DB 0C0H, 38H, 00H, 04H, 04H, 03H, 00H, 00H     ;.8......

26B6 04030000                
26BA 00304848       4131     Q26BA:           DB  00H, 30H, 48H, 48H, 48H, 90H, 00H, 01H     ;.0HHH...

26BE 48900001                
26C2 02020201       4132     Q26C2:           DB  02H, 02H, 02H, 01H, 00H, 08H,0FEH, 08H     ;........

26C6 0008FE08                
26CA 08000000       4133     Q26CA:           DB  08H, 00H, 00H, 00H, 01H, 02H, 02H, 00H     ;........

26CE 01020200                
26D2 00D02828       4134     Q26D2:           DB  00H,0D0H, 28H, 28H,0F0H, 00H, 00H, 01H     ;..((....

26D6 F0000001                
26DA 02020102       4135     Q26DA:           DB  02H, 02H, 01H, 02H, 00H, 00H, 00H,0FEH     ;........

26DE 000000FE                
26E2 00000000       4136     Q26E2:           DB  00H, 00H, 00H, 00H, 00H, 03H, 00H, 00H     ;........

26E6 00030000                
26EA 0000F810       4137     Q26EA:           DB  00H, 00H,0F8H, 10H, 08H, 08H, 00H, 00H     ;........

26EE 08080000                
26F2 03000000       4138     Q26F2:           DB  03H, 00H, 00H, 00H, 00H,0D0H, 28H, 28H     ;......((

26F6 00D02828                
26FA F0000001       4139     Q26FA:           DB 0F0H, 00H, 00H, 01H, 02H, 02H, 01H, 02H     ;........

26FE 02020102                
2702 00F00808       4140     Q2702:           DB  00H,0F0H, 08H, 08H, 08H,0FFH, 00H, 01H     ;........

2706 08FF0001                
270A 02020203       4141     Q270A:           DB  02H, 02H, 02H, 03H, 00H, 00H, 00H,0FBH     ;........

270E 000000FB                
2712 00000000       4142     Q2712:           DB  00H, 00H, 00H, 00H, 00H, 03H, 00H, 00H     ;........

2716 00030000                
271A 00F00808       4143     Q271A:           DB  00H,0F0H, 08H, 08H, 08H,0F0H, 00H, 01H     ;........

271E 08F00001                
2722 02020201       4144     Q2722:           DB  02H, 02H, 02H, 01H, 00H, 00H, 00H, 00H     ;........

2726 00000000                
272A 00000000       4145     Q272A:           DB  00H, 00H, 00H, 00H, 00H, 03H, 00H, 00H     ;........

272E 00030000                
2732 00F00808       4146     Q2732:           DB  00H,0F0H, 08H, 08H, 08H, 10H, 00H, 01H     ;........

A51 MACRO ASSEMBLER  __________V0_0                                                       12/04/2016 21:52:57 PAGE    72

2736 08100001                
273A 02020201       4147     Q273A:           DB  02H, 02H, 02H, 01H, 00H,0F8H, 08H, 08H     ;........

273E 00F80808                
2742 08F00003       4148     Q2742:           DB  08H,0F0H, 00H, 03H, 00H, 00H, 00H, 03H     ;........

2746 00000003                
274A 00202020       4149     Q274A:           DB  00H, 20H, 20H, 20H,0FFH, 90H, 10H, 10H     ;........

274E FF901010                
2752 10000000       4150     Q2752:           DB  10H, 00H, 00H, 00H, 04H, 04H, 02H, 01H     ;........

2756 04040201                
275A 00000102       4151     Q275A:           DB  00H, 00H, 01H, 02H, 06H, 04H, 04H, 00H     ;........

275E 06040400                
2762 1054B400       4152     Q2762:           DB  10H, 54H,0B4H, 00H, 09H,0EAH, 5CH, 56H     ;.T....\V

2766 09EA5C56                
276A F5040000       4153     Q276A:           DB 0F5H, 04H, 00H, 00H, 01H, 01H, 01H, 01H     ;........

276E 01010101                
2772 02030505       4154     Q2772:           DB  02H, 03H, 05H, 05H, 05H, 02H, 02H, 00H     ;........

2776 05020200                
277A E0006082       4155     Q277A:           DB 0E0H, 00H, 60H, 82H, 44H, 30H, 0EH, 00H     ;..`.D0..

277E 44300E00                
2782 40902000       4156     Q2782:           DB  40H, 90H, 20H, 00H, 00H, 02H, 01H, 00H     ;@.......

2786 00020100                
278A 01010101       4157     Q278A:           DB  01H, 01H, 01H, 01H, 01H, 00H, 00H, 00H     ;........

278E 01000000                
2792 0000F048       4158     Q2792:           DB  00H, 00H,0F0H, 48H,0C8H, 0FH, 74H, 85H     ;...H..t.

2796 C80F7485                
279A 44200000       4159     Q279A:           DB  44H, 20H, 00H, 00H, 02H, 01H, 00H, 02H     ;D.......

279E 02010002                
27A2 03000101       4160     Q27A2:           DB  03H, 00H, 01H, 01H, 02H, 04H, 07H, 00H     ;........

27A6 02040700                
27AA 00000000       4161     Q27AA:           DB  00H, 00H, 00H, 00H, 00H, 00H, 00H, 00H     ;........

27AE 00000000                
27B2 00000000       4162     Q27B2:           DB  00H, 00H, 00H, 00H, 00H, 00H, 00H, 00H     ;........

27B6 00000000                
27BA 00000000       4163     Q27BA:           DB  00H, 00H, 00H, 00H, 00H, 00H, 00H, 00H     ;........

27BE 00000000                
27C2 808054B6       4164     Q27C2:           DB  80H, 80H, 54H,0B6H, 5DH, 94H, 2BH, 4AH     ;..T.].+J

27C6 5D942B4A                
27CA 88808000       4165     Q27CA:           DB  88H, 80H, 80H, 00H, 00H, 00H, 04H, 06H     ;........

27CE 00000406                
27D2 05020100       4166     Q27D2:           DB  05H, 02H, 01H, 00H, 00H, 00H, 00H, 00H     ;........

27D6 00000000                
27DA 00A66ABE       4167     Q27DA:           DB  00H,0A6H, 6AH,0BEH, 6BH, 5EH,0D5H, 31H     ;..j.k^.1

27DE 6B5ED531                
27E2 53808000       4168     Q27E2:           DB  53H, 80H, 80H, 00H, 01H, 00H, 04H, 05H     ;S.......

27E6 01000405                
27EA 03020504       4169     Q27EA:           DB  03H, 02H, 05H, 04H, 00H, 00H, 00H, 00H     ;........

27EE 00000000                
27F2 2010FC23       4170     Q27F2:           DB  20H, 10H,0FCH, 23H, 10H, 0CH,0FBH,0A8H     ;...#....

27F6 100CFBA8                
27FA A4A40400       4171     Q27FA:           DB 0A4H,0A4H, 04H, 00H, 00H, 00H, 03H, 00H     ;........

27FE 00000300                
2802 00000700       4172     Q2802:           DB  00H, 00H, 07H, 00H, 00H, 00H, 00H, 00H     ;........

2806 00000000                
280A 0080404E       4173     Q280A:           DB  00H, 80H, 40H, 4EH,0D2H, 12H,0C9H, 4FH     ;..@N...O

280E D212C94F                
2812 20E00000       4174     Q2812:           DB  20H,0E0H, 00H, 00H, 00H, 03H, 02H, 01H     ;........

2816 00030201                
281A 01000101       4175     Q281A:           DB  01H, 00H, 01H, 01H, 01H, 01H, 00H, 00H     ;........

281E 01010000                
                    4176     ;==========================================================================

2822 BB0106         4177     Q2822:             CJNE  R3,#01H,Q282B                ;2822   BB 01 06

2825 8982           4178                        MOV   DPL,R1                       ;2825   89 82

2827 8A83           4179                        MOV   DPH,R2                       ;2827   8A 83

2829 E0             4180                        MOVX  A,@DPTR                      ;2829   E0

282A 22             4181                        RET                                ;282A   22

                    4182     ;==========================================================================

A51 MACRO ASSEMBLER  __________V0_0                                                       12/04/2016 21:52:57 PAGE    73

282B 5002           4183     Q282B:             JNC   Q282F                        ;282B   50 02

282D E7             4184                        MOV   A,@R1                        ;282D   E7

282E 22             4185                        RET                                ;282E   22

                    4186     ;==========================================================================

282F BBFE02         4187     Q282F:             CJNE  R3,#0FEH,Q2834               ;282F   BB FE 02

2832 E3             4188                        MOVX  A,@R1                        ;2832   E3

2833 22             4189                        RET                                ;2833   22

                    4190     ;==========================================================================

2834 8982           4191     Q2834:             MOV   DPL,R1                       ;2834   89 82

2836 8A83           4192                        MOV   DPH,R2                       ;2836   8A 83

2838 E4             4193                        CLR   A                            ;2838   E4

2839 93             4194                        MOVC  A,@A+DPTR                    ;2839   93

283A 22             4195                        RET                                ;283A   22

                    4196     ;==========================================================================

283B BB010C         4197     Q283B:             CJNE  R3,#01H,Q284A                ;283B   BB 01 0C

283E E582           4198                        MOV   A,DPL                        ;283E   E5 82

2840 29             4199                        ADD   A,R1                         ;2840   29

2841 F582           4200                        MOV   DPL,A                        ;2841   F5 82

2843 E583           4201                        MOV   A,DPH                        ;2843   E5 83

2845 3A             4202                        ADDC  A,R2                         ;2845   3A

2846 F583           4203                        MOV   DPH,A                        ;2846   F5 83

2848 E0             4204                        MOVX  A,@DPTR                      ;2848   E0

2849 22             4205                        RET                                ;2849   22

                    4206     ;==========================================================================

284A 5006           4207     Q284A:             JNC   Q2852                        ;284A   50 06

284C E9             4208                        MOV   A,R1                         ;284C   E9

284D 2582           4209                        ADD   A,DPL                        ;284D   25 82

284F F8             4210                        MOV   R0,A                         ;284F   F8

2850 E6             4211                        MOV   A,@R0                        ;2850   E6

2851 22             4212                        RET                                ;2851   22

                    4213     ;==========================================================================

2852 BBFE06         4214     Q2852:             CJNE  R3,#0FEH,Q285B               ;2852   BB FE 06

2855 E9             4215                        MOV   A,R1                         ;2855   E9

2856 2582           4216                        ADD   A,DPL                        ;2856   25 82

2858 F8             4217                        MOV   R0,A                         ;2858   F8

2859 E2             4218                        MOVX  A,@R0                        ;2859   E2

285A 22             4219                        RET                                ;285A   22

                    4220     ;==========================================================================

285B E582           4221     Q285B:             MOV   A,DPL                        ;285B   E5 82

285D 29             4222                        ADD   A,R1                         ;285D   29

285E F582           4223                        MOV   DPL,A                        ;285E   F5 82

2860 E583           4224                        MOV   A,DPH                        ;2860   E5 83

2862 3A             4225                        ADDC  A,R2                         ;2862   3A

2863 F583           4226                        MOV   DPH,A                        ;2863   F5 83

2865 E4             4227                        CLR   A                            ;2865   E4

2866 93             4228                        MOVC  A,@A+DPTR                    ;2866   93

2867 22             4229                        RET                                ;2867   22

                    4230     ;==========================================================================

2868 F8             4231     Q2868:             MOV   R0,A                         ;2868   F8

2869 BB010D         4232                        CJNE  R3,#01H,Q2879                ;2869   BB 01 0D

286C E582           4233                        MOV   A,DPL                        ;286C   E5 82

286E 29             4234                        ADD   A,R1                         ;286E   29

286F F582           4235                        MOV   DPL,A                        ;286F   F5 82

2871 E583           4236                        MOV   A,DPH                        ;2871   E5 83

2873 3A             4237                        ADDC  A,R2                         ;2873   3A

2874 F583           4238                        MOV   DPH,A                        ;2874   F5 83

2876 E8             4239                        MOV   A,R0                         ;2876   E8

2877 F0             4240                        MOVX  @DPTR,A                      ;2877   F0

2878 22             4241                        RET                                ;2878   22

                    4242     ;==========================================================================

2879 5006           4243     Q2879:             JNC   Q2881                        ;2879   50 06

287B E9             4244                        MOV   A,R1                         ;287B   E9

287C 2582           4245                        ADD   A,DPL                        ;287C   25 82

287E C8             4246                        XCH   A,R0                         ;287E   C8

287F F6             4247                        MOV   @R0,A                        ;287F   F6

2880 22             4248                        RET                                ;2880   22

A51 MACRO ASSEMBLER  __________V0_0                                                       12/04/2016 21:52:57 PAGE    74

                    4249     ;==========================================================================

2881 BBFE05         4250     Q2881:             CJNE  R3,#0FEH,Q2889               ;2881   BB FE 05

2884 E9             4251                        MOV   A,R1                         ;2884   E9

2885 2582           4252                        ADD   A,DPL                        ;2885   25 82

2887 C8             4253                        XCH   A,R0                         ;2887   C8

2888 F2             4254                        MOVX  @R0,A                        ;2888   F2

2889 22             4255     Q2889:             RET                                ;2889   22

                    4256     ;==========================================================================

288A EF             4257     Q288A:             MOV   A,R7                         ;288A   EF

288B 8DF0           4258                        MOV   B,R5                         ;288B   8D F0

288D A4             4259                        MUL   AB                           ;288D   A4

288E A8F0           4260                        MOV   R0,B                         ;288E   A8 F0

2890 CF             4261                        XCH   A,R7                         ;2890   CF

2891 8CF0           4262                        MOV   B,R4                         ;2891   8C F0

2893 A4             4263                        MUL   AB                           ;2893   A4

2894 28             4264                        ADD   A,R0                         ;2894   28

2895 CE             4265                        XCH   A,R6                         ;2895   CE

2896 8DF0           4266                        MOV   B,R5                         ;2896   8D F0

2898 A4             4267                        MUL   AB                           ;2898   A4

2899 2E             4268                        ADD   A,R6                         ;2899   2E

289A FE             4269                        MOV   R6,A                         ;289A   FE

289B 22             4270                        RET                                ;289B   22

                    4271     ;==========================================================================

289C C2D5           4272     Q289C:             CLR   F0                           ;289C   C2 D5

289E EC             4273                        MOV   A,R4                         ;289E   EC

289F 30E709         4274                        JNB   ACC.7,Q28AB                  ;289F   30 E7 09

28A2 B2D5           4275                        CPL   F0                           ;28A2   B2 D5

28A4 E4             4276                        CLR   A                            ;28A4   E4

28A5 C3             4277                        CLR   C                            ;28A5   C3

28A6 9D             4278                        SUBB  A,R5                         ;28A6   9D

28A7 FD             4279                        MOV   R5,A                         ;28A7   FD

28A8 E4             4280                        CLR   A                            ;28A8   E4

28A9 9C             4281                        SUBB  A,R4                         ;28A9   9C

28AA FC             4282                        MOV   R4,A                         ;28AA   FC

28AB EE             4283     Q28AB:             MOV   A,R6                         ;28AB   EE

28AC 30E715         4284                        JNB   ACC.7,Q28C4                  ;28AC   30 E7 15

28AF B2D5           4285                        CPL   F0                           ;28AF   B2 D5

28B1 E4             4286                        CLR   A                            ;28B1   E4

28B2 C3             4287                        CLR   C                            ;28B2   C3

28B3 9F             4288                        SUBB  A,R7                         ;28B3   9F

28B4 FF             4289                        MOV   R7,A                         ;28B4   FF

28B5 E4             4290                        CLR   A                            ;28B5   E4

28B6 9E             4291                        SUBB  A,R6                         ;28B6   9E

28B7 FE             4292                        MOV   R6,A                         ;28B7   FE

28B8 122A00         4293                        LCALL Q2A00                        ;28B8   12 2A 00

28BB C3             4294                        CLR   C                            ;28BB   C3

28BC E4             4295                        CLR   A                            ;28BC   E4

28BD 9D             4296                        SUBB  A,R5                         ;28BD   9D

28BE FD             4297                        MOV   R5,A                         ;28BE   FD

28BF E4             4298                        CLR   A                            ;28BF   E4

28C0 9C             4299                        SUBB  A,R4                         ;28C0   9C

28C1 FC             4300                        MOV   R4,A                         ;28C1   FC

28C2 8003           4301                        SJMP  Q28C7                        ;28C2   80 03

28C4 122A00         4302     Q28C4:             LCALL Q2A00                        ;28C4   12 2A 00

28C7 30D507         4303     Q28C7:             JNB   F0,Q28D1                     ;28C7   30 D5 07

28CA C3             4304                        CLR   C                            ;28CA   C3

28CB E4             4305                        CLR   A                            ;28CB   E4

28CC 9F             4306                        SUBB  A,R7                         ;28CC   9F

28CD FF             4307                        MOV   R7,A                         ;28CD   FF

28CE E4             4308                        CLR   A                            ;28CE   E4

28CF 9E             4309                        SUBB  A,R6                         ;28CF   9E

28D0 FE             4310                        MOV   R6,A                         ;28D0   FE

28D1 22             4311     Q28D1:             RET                                ;28D1   22

                    4312     ;==========================================================================

28D2 E8             4313     Q28D2:             MOV   A,R0                         ;28D2   E8

28D3 8FF0           4314                        MOV   B,R7                         ;28D3   8F F0

A51 MACRO ASSEMBLER  __________V0_0                                                       12/04/2016 21:52:57 PAGE    75

28D5 A4             4315                        MUL   AB                           ;28D5   A4

28D6 CC             4316                        XCH   A,R4                         ;28D6   CC

28D7 8BF0           4317                        MOV   B,R3                         ;28D7   8B F0

28D9 A4             4318                        MUL   AB                           ;28D9   A4

28DA 2C             4319                        ADD   A,R4                         ;28DA   2C

28DB FC             4320                        MOV   R4,A                         ;28DB   FC

28DC E9             4321                        MOV   A,R1                         ;28DC   E9

28DD 8EF0           4322                        MOV   B,R6                         ;28DD   8E F0

28DF A4             4323                        MUL   AB                           ;28DF   A4

28E0 2C             4324                        ADD   A,R4                         ;28E0   2C

28E1 FC             4325                        MOV   R4,A                         ;28E1   FC

28E2 8AF0           4326                        MOV   B,R2                         ;28E2   8A F0

28E4 ED             4327                        MOV   A,R5                         ;28E4   ED

28E5 A4             4328                        MUL   AB                           ;28E5   A4

28E6 2C             4329                        ADD   A,R4                         ;28E6   2C

28E7 FC             4330                        MOV   R4,A                         ;28E7   FC

28E8 EA             4331                        MOV   A,R2                         ;28E8   EA

28E9 8EF0           4332                        MOV   B,R6                         ;28E9   8E F0

28EB A4             4333                        MUL   AB                           ;28EB   A4

28EC CD             4334                        XCH   A,R5                         ;28EC   CD

28ED A8F0           4335                        MOV   R0,B                         ;28ED   A8 F0

28EF 8BF0           4336                        MOV   B,R3                         ;28EF   8B F0

28F1 A4             4337                        MUL   AB                           ;28F1   A4

28F2 2D             4338                        ADD   A,R5                         ;28F2   2D

28F3 CC             4339                        XCH   A,R4                         ;28F3   CC

28F4 38             4340                        ADDC  A,R0                         ;28F4   38

28F5 25F0           4341                        ADD   A,B                          ;28F5   25 F0

28F7 FD             4342                        MOV   R5,A                         ;28F7   FD

28F8 E9             4343                        MOV   A,R1                         ;28F8   E9

28F9 8FF0           4344                        MOV   B,R7                         ;28F9   8F F0

28FB A4             4345                        MUL   AB                           ;28FB   A4

28FC 2C             4346                        ADD   A,R4                         ;28FC   2C

28FD CD             4347                        XCH   A,R5                         ;28FD   CD

28FE 35F0           4348                        ADDC  A,B                          ;28FE   35 F0

2900 FC             4349                        MOV   R4,A                         ;2900   FC

2901 EB             4350                        MOV   A,R3                         ;2901   EB

2902 8EF0           4351                        MOV   B,R6                         ;2902   8E F0

2904 A4             4352                        MUL   AB                           ;2904   A4

2905 FE             4353                        MOV   R6,A                         ;2905   FE

2906 A9F0           4354                        MOV   R1,B                         ;2906   A9 F0

2908 EB             4355                        MOV   A,R3                         ;2908   EB

2909 8FF0           4356                        MOV   B,R7                         ;2909   8F F0

290B A4             4357                        MUL   AB                           ;290B   A4

290C CF             4358                        XCH   A,R7                         ;290C   CF

290D C5F0           4359                        XCH   A,B                          ;290D   C5 F0

290F 2E             4360                        ADD   A,R6                         ;290F   2E

2910 CD             4361                        XCH   A,R5                         ;2910   CD

2911 39             4362                        ADDC  A,R1                         ;2911   39

2912 FE             4363                        MOV   R6,A                         ;2912   FE

2913 E4             4364                        CLR   A                            ;2913   E4

2914 3C             4365                        ADDC  A,R4                         ;2914   3C

2915 FC             4366                        MOV   R4,A                         ;2915   FC

2916 EA             4367                        MOV   A,R2                         ;2916   EA

2917 A4             4368                        MUL   AB                           ;2917   A4

2918 2D             4369                        ADD   A,R5                         ;2918   2D

2919 CE             4370                        XCH   A,R6                         ;2919   CE

291A 35F0           4371                        ADDC  A,B                          ;291A   35 F0

291C FD             4372                        MOV   R5,A                         ;291C   FD

291D E4             4373                        CLR   A                            ;291D   E4

291E 3C             4374                        ADDC  A,R4                         ;291E   3C

291F FC             4375                        MOV   R4,A                         ;291F   FC

2920 22             4376                        RET                                ;2920   22

                    4377     ;==========================================================================

2921 75F008         4378     Q2921:             MOV   B,#08H                       ;2921   75 F0 08

2924 758200         4379                        MOV   DPL,#00H                     ;2924   75 82 00

2927 EF             4380     Q2927:             MOV   A,R7                         ;2927   EF

A51 MACRO ASSEMBLER  __________V0_0                                                       12/04/2016 21:52:57 PAGE    76

2928 2F             4381                        ADD   A,R7                         ;2928   2F

2929 FF             4382                        MOV   R7,A                         ;2929   FF

292A EE             4383                        MOV   A,R6                         ;292A   EE

292B 33             4384                        RLC   A                            ;292B   33

292C FE             4385                        MOV   R6,A                         ;292C   FE

292D CD             4386                        XCH   A,R5                         ;292D   CD

292E 33             4387                        RLC   A                            ;292E   33

292F CD             4388                        XCH   A,R5                         ;292F   CD

2930 CC             4389                        XCH   A,R4                         ;2930   CC

2931 33             4390                        RLC   A                            ;2931   33

2932 CC             4391                        XCH   A,R4                         ;2932   CC

2933 C582           4392                        XCH   A,DPL                        ;2933   C5 82

2935 33             4393                        RLC   A                            ;2935   33

2936 C582           4394                        XCH   A,DPL                        ;2936   C5 82

2938 9B             4395                        SUBB  A,R3                         ;2938   9B

2939 ED             4396                        MOV   A,R5                         ;2939   ED

293A 9A             4397                        SUBB  A,R2                         ;293A   9A

293B EC             4398                        MOV   A,R4                         ;293B   EC

293C 99             4399                        SUBB  A,R1                         ;293C   99

293D E582           4400                        MOV   A,DPL                        ;293D   E5 82

293F 98             4401                        SUBB  A,R0                         ;293F   98

2940 400C           4402                        JC    Q294E                        ;2940   40 0C

2942 F582           4403                        MOV   DPL,A                        ;2942   F5 82

2944 EE             4404                        MOV   A,R6                         ;2944   EE

2945 9B             4405                        SUBB  A,R3                         ;2945   9B

2946 FE             4406                        MOV   R6,A                         ;2946   FE

2947 ED             4407                        MOV   A,R5                         ;2947   ED

2948 9A             4408                        SUBB  A,R2                         ;2948   9A

2949 FD             4409                        MOV   R5,A                         ;2949   FD

294A EC             4410                        MOV   A,R4                         ;294A   EC

294B 99             4411                        SUBB  A,R1                         ;294B   99

294C FC             4412                        MOV   R4,A                         ;294C   FC

294D 0F             4413                        INC   R7                           ;294D   0F

294E D5F0D6         4414     Q294E:             DJNZ  B,Q2927                      ;294E   D5 F0 D6

2951 E4             4415                        CLR   A                            ;2951   E4

2952 CE             4416                        XCH   A,R6                         ;2952   CE

2953 FB             4417                        MOV   R3,A                         ;2953   FB

2954 E4             4418                        CLR   A                            ;2954   E4

2955 CD             4419                        XCH   A,R5                         ;2955   CD

2956 FA             4420                        MOV   R2,A                         ;2956   FA

2957 E4             4421                        CLR   A                            ;2957   E4

2958 CC             4422                        XCH   A,R4                         ;2958   CC

2959 F9             4423                        MOV   R1,A                         ;2959   F9

295A A882           4424                        MOV   R0,DPL                       ;295A   A8 82

295C 22             4425                        RET                                ;295C   22

                    4426     ;==========================================================================

295D B800C1         4427     Q295D:             CJNE  R0,#00H,Q2921                ;295D   B8 00 C1

2960 B90059         4428                        CJNE  R1,#00H,Q29BC                ;2960   B9 00 59

2963 BA002D         4429                        CJNE  R2,#00H,Q2993                ;2963   BA 00 2D

2966 EC             4430                        MOV   A,R4                         ;2966   EC

2967 8BF0           4431                        MOV   B,R3                         ;2967   8B F0

2969 84             4432                        DIV   AB                           ;2969   84

296A CF             4433                        XCH   A,R7                         ;296A   CF

296B CE             4434                        XCH   A,R6                         ;296B   CE

296C CD             4435                        XCH   A,R5                         ;296C   CD

296D FC             4436                        MOV   R4,A                         ;296D   FC

296E E5F0           4437                        MOV   A,B                          ;296E   E5 F0

2970 CB             4438                        XCH   A,R3                         ;2970   CB

2971 F9             4439                        MOV   R1,A                         ;2971   F9

2972 7818           4440                        MOV   R0,#18H                      ;2972   78 18

2974 EF             4441     Q2974:             MOV   A,R7                         ;2974   EF

2975 2F             4442                        ADD   A,R7                         ;2975   2F

2976 FF             4443                        MOV   R7,A                         ;2976   FF

2977 EE             4444                        MOV   A,R6                         ;2977   EE

2978 33             4445                        RLC   A                            ;2978   33

2979 FE             4446                        MOV   R6,A                         ;2979   FE

A51 MACRO ASSEMBLER  __________V0_0                                                       12/04/2016 21:52:57 PAGE    77

297A ED             4447                        MOV   A,R5                         ;297A   ED

297B 33             4448                        RLC   A                            ;297B   33

297C FD             4449                        MOV   R5,A                         ;297C   FD

297D EC             4450                        MOV   A,R4                         ;297D   EC

297E 33             4451                        RLC   A                            ;297E   33

297F FC             4452                        MOV   R4,A                         ;297F   FC

2980 EB             4453                        MOV   A,R3                         ;2980   EB

2981 33             4454                        RLC   A                            ;2981   33

2982 FB             4455                        MOV   R3,A                         ;2982   FB

2983 10D703         4456                        JBC   CY,Q2989                     ;2983   10 D7 03

2986 99             4457                        SUBB  A,R1                         ;2986   99

2987 4004           4458                        JC    Q298D                        ;2987   40 04

2989 EB             4459     Q2989:             MOV   A,R3                         ;2989   EB

298A 99             4460                        SUBB  A,R1                         ;298A   99

298B FB             4461                        MOV   R3,A                         ;298B   FB

298C 0F             4462                        INC   R7                           ;298C   0F

298D D8E5           4463     Q298D:             DJNZ  R0,Q2974                     ;298D   D8 E5

298F E4             4464                        CLR   A                            ;298F   E4

2990 F9             4465                        MOV   R1,A                         ;2990   F9

2991 FA             4466                        MOV   R2,A                         ;2991   FA

2992 22             4467                        RET                                ;2992   22

                    4468     ;==========================================================================

2993 7818           4469     Q2993:             MOV   R0,#18H                      ;2993   78 18

2995 EF             4470     Q2995:             MOV   A,R7                         ;2995   EF

2996 2F             4471                        ADD   A,R7                         ;2996   2F

2997 FF             4472                        MOV   R7,A                         ;2997   FF

2998 EE             4473                        MOV   A,R6                         ;2998   EE

2999 33             4474                        RLC   A                            ;2999   33

299A FE             4475                        MOV   R6,A                         ;299A   FE

299B ED             4476                        MOV   A,R5                         ;299B   ED

299C 33             4477                        RLC   A                            ;299C   33

299D FD             4478                        MOV   R5,A                         ;299D   FD

299E EC             4479                        MOV   A,R4                         ;299E   EC

299F 33             4480                        RLC   A                            ;299F   33

29A0 FC             4481                        MOV   R4,A                         ;29A0   FC

29A1 C9             4482                        XCH   A,R1                         ;29A1   C9

29A2 33             4483                        RLC   A                            ;29A2   33

29A3 C9             4484                        XCH   A,R1                         ;29A3   C9

29A4 10D705         4485                        JBC   CY,Q29AC                     ;29A4   10 D7 05

29A7 9B             4486                        SUBB  A,R3                         ;29A7   9B

29A8 E9             4487                        MOV   A,R1                         ;29A8   E9

29A9 9A             4488                        SUBB  A,R2                         ;29A9   9A

29AA 4007           4489                        JC    Q29B3                        ;29AA   40 07

29AC EC             4490     Q29AC:             MOV   A,R4                         ;29AC   EC

29AD 9B             4491                        SUBB  A,R3                         ;29AD   9B

29AE FC             4492                        MOV   R4,A                         ;29AE   FC

29AF E9             4493                        MOV   A,R1                         ;29AF   E9

29B0 9A             4494                        SUBB  A,R2                         ;29B0   9A

29B1 F9             4495                        MOV   R1,A                         ;29B1   F9

29B2 0F             4496                        INC   R7                           ;29B2   0F

29B3 D8E0           4497     Q29B3:             DJNZ  R0,Q2995                     ;29B3   D8 E0

29B5 E4             4498                        CLR   A                            ;29B5   E4

29B6 C9             4499                        XCH   A,R1                         ;29B6   C9

29B7 FA             4500                        MOV   R2,A                         ;29B7   FA

29B8 E4             4501                        CLR   A                            ;29B8   E4

29B9 CC             4502                        XCH   A,R4                         ;29B9   CC

29BA FB             4503                        MOV   R3,A                         ;29BA   FB

29BB 22             4504                        RET                                ;29BB   22

                    4505     ;==========================================================================

29BC 75F010         4506     Q29BC:             MOV   B,#10H                       ;29BC   75 F0 10

29BF EF             4507     Q29BF:             MOV   A,R7                         ;29BF   EF

29C0 2F             4508                        ADD   A,R7                         ;29C0   2F

29C1 FF             4509                        MOV   R7,A                         ;29C1   FF

29C2 EE             4510                        MOV   A,R6                         ;29C2   EE

29C3 33             4511                        RLC   A                            ;29C3   33

29C4 FE             4512                        MOV   R6,A                         ;29C4   FE

A51 MACRO ASSEMBLER  __________V0_0                                                       12/04/2016 21:52:57 PAGE    78

29C5 ED             4513                        MOV   A,R5                         ;29C5   ED

29C6 33             4514                        RLC   A                            ;29C6   33

29C7 FD             4515                        MOV   R5,A                         ;29C7   FD

29C8 CC             4516                        XCH   A,R4                         ;29C8   CC

29C9 33             4517                        RLC   A                            ;29C9   33

29CA CC             4518                        XCH   A,R4                         ;29CA   CC

29CB C8             4519                        XCH   A,R0                         ;29CB   C8

29CC 33             4520                        RLC   A                            ;29CC   33

29CD C8             4521                        XCH   A,R0                         ;29CD   C8

29CE 10D707         4522                        JBC   CY,Q29D8                     ;29CE   10 D7 07

29D1 9B             4523                        SUBB  A,R3                         ;29D1   9B

29D2 EC             4524                        MOV   A,R4                         ;29D2   EC

29D3 9A             4525                        SUBB  A,R2                         ;29D3   9A

29D4 E8             4526                        MOV   A,R0                         ;29D4   E8

29D5 99             4527                        SUBB  A,R1                         ;29D5   99

29D6 400A           4528                        JC    Q29E2                        ;29D6   40 0A

29D8 ED             4529     Q29D8:             MOV   A,R5                         ;29D8   ED

29D9 9B             4530                        SUBB  A,R3                         ;29D9   9B

29DA FD             4531                        MOV   R5,A                         ;29DA   FD

29DB EC             4532                        MOV   A,R4                         ;29DB   EC

29DC 9A             4533                        SUBB  A,R2                         ;29DC   9A

29DD FC             4534                        MOV   R4,A                         ;29DD   FC

29DE E8             4535                        MOV   A,R0                         ;29DE   E8

29DF 99             4536                        SUBB  A,R1                         ;29DF   99

29E0 F8             4537                        MOV   R0,A                         ;29E0   F8

29E1 0F             4538                        INC   R7                           ;29E1   0F

29E2 D5F0DA         4539     Q29E2:             DJNZ  B,Q29BF                      ;29E2   D5 F0 DA

29E5 E4             4540                        CLR   A                            ;29E5   E4

29E6 CD             4541                        XCH   A,R5                         ;29E6   CD

29E7 FB             4542                        MOV   R3,A                         ;29E7   FB

29E8 E4             4543                        CLR   A                            ;29E8   E4

29E9 CC             4544                        XCH   A,R4                         ;29E9   CC

29EA FA             4545                        MOV   R2,A                         ;29EA   FA

29EB E4             4546                        CLR   A                            ;29EB   E4

29EC C8             4547                        XCH   A,R0                         ;29EC   C8

29ED F9             4548                        MOV   R1,A                         ;29ED   F9

29EE 22             4549                        RET                                ;29EE   22

                    4550     ;==========================================================================

29EF EB             4551     Q29EF:             MOV   A,R3                         ;29EF   EB

29F0 9F             4552                        SUBB  A,R7                         ;29F0   9F

29F1 F5F0           4553                        MOV   B,A                          ;29F1   F5 F0

29F3 EA             4554                        MOV   A,R2                         ;29F3   EA

29F4 9E             4555                        SUBB  A,R6                         ;29F4   9E

29F5 42F0           4556                        ORL   B,A                          ;29F5   42 F0

29F7 E9             4557                        MOV   A,R1                         ;29F7   E9

29F8 9D             4558                        SUBB  A,R5                         ;29F8   9D

29F9 42F0           4559                        ORL   B,A                          ;29F9   42 F0

29FB E8             4560                        MOV   A,R0                         ;29FB   E8

29FC 9C             4561                        SUBB  A,R4                         ;29FC   9C

29FD 45F0           4562                        ORL   A,B                          ;29FD   45 F0

29FF 22             4563                        RET                                ;29FF   22

                    4564     ;==========================================================================

2A00 BC000B         4565     Q2A00:             CJNE  R4,#00H,Q2A0E                ;2A00   BC 00 0B

2A03 BE0029         4566                        CJNE  R6,#00H,Q2A2F                ;2A03   BE 00 29

2A06 EF             4567                        MOV   A,R7                         ;2A06   EF

2A07 8DF0           4568                        MOV   B,R5                         ;2A07   8D F0

2A09 84             4569                        DIV   AB                           ;2A09   84

2A0A FF             4570                        MOV   R7,A                         ;2A0A   FF

2A0B ADF0           4571                        MOV   R5,B                         ;2A0B   AD F0

2A0D 22             4572                        RET                                ;2A0D   22

                    4573     ;==========================================================================

2A0E E4             4574     Q2A0E:             CLR   A                            ;2A0E   E4

2A0F CC             4575                        XCH   A,R4                         ;2A0F   CC

2A10 F8             4576                        MOV   R0,A                         ;2A10   F8

2A11 75F008         4577                        MOV   B,#08H                       ;2A11   75 F0 08

2A14 EF             4578     Q2A14:             MOV   A,R7                         ;2A14   EF

A51 MACRO ASSEMBLER  __________V0_0                                                       12/04/2016 21:52:57 PAGE    79

2A15 2F             4579                        ADD   A,R7                         ;2A15   2F

2A16 FF             4580                        MOV   R7,A                         ;2A16   FF

2A17 EE             4581                        MOV   A,R6                         ;2A17   EE

2A18 33             4582                        RLC   A                            ;2A18   33

2A19 FE             4583                        MOV   R6,A                         ;2A19   FE

2A1A EC             4584                        MOV   A,R4                         ;2A1A   EC

2A1B 33             4585                        RLC   A                            ;2A1B   33

2A1C FC             4586                        MOV   R4,A                         ;2A1C   FC

2A1D EE             4587                        MOV   A,R6                         ;2A1D   EE

2A1E 9D             4588                        SUBB  A,R5                         ;2A1E   9D

2A1F EC             4589                        MOV   A,R4                         ;2A1F   EC

2A20 98             4590                        SUBB  A,R0                         ;2A20   98

2A21 4005           4591                        JC    Q2A28                        ;2A21   40 05

2A23 FC             4592                        MOV   R4,A                         ;2A23   FC

2A24 EE             4593                        MOV   A,R6                         ;2A24   EE

2A25 9D             4594                        SUBB  A,R5                         ;2A25   9D

2A26 FE             4595                        MOV   R6,A                         ;2A26   FE

2A27 0F             4596                        INC   R7                           ;2A27   0F

2A28 D5F0E9         4597     Q2A28:             DJNZ  B,Q2A14                      ;2A28   D5 F0 E9

2A2B E4             4598                        CLR   A                            ;2A2B   E4

2A2C CE             4599                        XCH   A,R6                         ;2A2C   CE

2A2D FD             4600                        MOV   R5,A                         ;2A2D   FD

2A2E 22             4601                        RET                                ;2A2E   22

                    4602     ;==========================================================================

2A2F ED             4603     Q2A2F:             MOV   A,R5                         ;2A2F   ED

2A30 F8             4604                        MOV   R0,A                         ;2A30   F8

2A31 F5F0           4605                        MOV   B,A                          ;2A31   F5 F0

2A33 EE             4606                        MOV   A,R6                         ;2A33   EE

2A34 84             4607                        DIV   AB                           ;2A34   84

2A35 20D21C         4608                        JB    OV,Q2A54                     ;2A35   20 D2 1C

2A38 FE             4609                        MOV   R6,A                         ;2A38   FE

2A39 ADF0           4610                        MOV   R5,B                         ;2A39   AD F0

2A3B 75F008         4611                        MOV   B,#08H                       ;2A3B   75 F0 08

2A3E EF             4612     Q2A3E:             MOV   A,R7                         ;2A3E   EF

2A3F 2F             4613                        ADD   A,R7                         ;2A3F   2F

2A40 FF             4614                        MOV   R7,A                         ;2A40   FF

2A41 ED             4615                        MOV   A,R5                         ;2A41   ED

2A42 33             4616                        RLC   A                            ;2A42   33

2A43 FD             4617                        MOV   R5,A                         ;2A43   FD

2A44 4007           4618                        JC    Q2A4D                        ;2A44   40 07

2A46 98             4619                        SUBB  A,R0                         ;2A46   98

2A47 5006           4620                        JNC   Q2A4F                        ;2A47   50 06

2A49 D5F0F2         4621                        DJNZ  B,Q2A3E                      ;2A49   D5 F0 F2

2A4C 22             4622                        RET                                ;2A4C   22

                    4623     ;==========================================================================

2A4D C3             4624     Q2A4D:             CLR   C                            ;2A4D   C3

2A4E 98             4625                        SUBB  A,R0                         ;2A4E   98

2A4F FD             4626     Q2A4F:             MOV   R5,A                         ;2A4F   FD

2A50 0F             4627                        INC   R7                           ;2A50   0F

2A51 D5F0EA         4628                        DJNZ  B,Q2A3E                      ;2A51   D5 F0 EA

2A54 22             4629     Q2A54:             RET                                ;2A54   22

                    4630     ;==========================================================================

2A55 E4             4631     Q2A55:             CLR   A                            ;2A55   E4

2A56 F52E           4632                        MOV   2EH,A                        ;2A56   F5 2E

2A58 F52F           4633                        MOV   2FH,A                        ;2A58   F5 2F

2A5A 850C33         4634                        MOV   33H,0CH                      ;2A5A   85 0C 33

2A5D 850B32         4635                        MOV   32H,0BH                      ;2A5D   85 0B 32

2A60 850A31         4636                        MOV   31H,0AH                      ;2A60   85 0A 31

2A63 850930         4637                        MOV   30H,09H                      ;2A63   85 09 30

2A66 E512           4638                        MOV   A,12H                        ;2A66   E5 12

2A68 6003           4639                        JZ    Q2A6D                        ;2A68   60 03

2A6A 022B42         4640                        LJMP  Q2B42                        ;2A6A   02 2B 42

                    4641     ;==========================================================================

2A6D 7BFF           4642     Q2A6D:             MOV   R3,#0FFH                     ;2A6D   7B FF

2A6F 7A00           4643                        MOV   R2,#00H                      ;2A6F   7A 00

2A71 793E           4644                        MOV   R1,#3EH                      ;2A71   79 3E

A51 MACRO ASSEMBLER  __________V0_0                                                       12/04/2016 21:52:57 PAGE    80

2A73 FD             4645                        MOV   R5,A                         ;2A73   FD

2A74 7F07           4646                        MOV   R7,#07H                      ;2A74   7F 07

2A76 1230C9         4647                        LCALL Q30C9                        ;2A76   12 30 C9

2A79 E4             4648                        CLR   A                            ;2A79   E4

2A7A F52D           4649                        MOV   2DH,A                        ;2A7A   F5 2D

2A7C E52D           4650     Q2A7C:             MOV   A,2DH                        ;2A7C   E5 2D

2A7E 6401           4651                        XRL   A,#01H                       ;2A7E   64 01

2A80 6005           4652                        JZ    Q2A87                        ;2A80   60 05

2A82 E52D           4653                        MOV   A,2DH                        ;2A82   E5 2D

2A84 B40404         4654                        CJNE  A,#04H,Q2A8B                 ;2A84   B4 04 04

2A87 052E           4655     Q2A87:             INC   2EH                          ;2A87   05 2E

2A89 052E           4656                        INC   2EH                          ;2A89   05 2E

2A8B E52F           4657     Q2A8B:             MOV   A,2FH                        ;2A8B   E5 2F

2A8D 7035           4658                        JNZ   Q2AC4                        ;2A8D   70 35

2A8F 122FE7         4659                        LCALL Q2FE7                        ;2A8F   12 2F E7

2A92 A804           4660                        MOV   R0,04H                       ;2A92   A8 04

2A94 A905           4661                        MOV   R1,05H                       ;2A94   A9 05

2A96 AA06           4662                        MOV   R2,06H                       ;2A96   AA 06

2A98 AB07           4663                        MOV   R3,07H                       ;2A98   AB 07

2A9A AF33           4664                        MOV   R7,33H                       ;2A9A   AF 33

2A9C AE32           4665                        MOV   R6,32H                       ;2A9C   AE 32

2A9E AD31           4666                        MOV   R5,31H                       ;2A9E   AD 31

2AA0 AC30           4667                        MOV   R4,30H                       ;2AA0   AC 30

2AA2 12295D         4668                        LCALL Q295D                        ;2AA2   12 29 5D

2AA5 E4             4669                        CLR   A                            ;2AA5   E4

2AA6 FB             4670                        MOV   R3,A                         ;2AA6   FB

2AA7 FA             4671                        MOV   R2,A                         ;2AA7   FA

2AA8 F9             4672                        MOV   R1,A                         ;2AA8   F9

2AA9 F8             4673                        MOV   R0,A                         ;2AA9   F8

2AAA C3             4674                        CLR   C                            ;2AAA   C3

2AAB 1229EF         4675                        LCALL Q29EF                        ;2AAB   12 29 EF

2AAE 7014           4676                        JNZ   Q2AC4                        ;2AAE   70 14

2AB0 E52D           4677                        MOV   A,2DH                        ;2AB0   E5 2D

2AB2 B40604         4678                        CJNE  A,#06H,Q2AB9                 ;2AB2   B4 06 04

2AB5 7B30           4679                        MOV   R3,#30H                      ;2AB5   7B 30

2AB7 8002           4680                        SJMP  Q2ABB                        ;2AB7   80 02

2AB9 7B20           4681     Q2AB9:             MOV   R3,#20H                      ;2AB9   7B 20

2ABB AD2E           4682     Q2ABB:             MOV   R5,2EH                       ;2ABB   AD 2E

2ABD 7F07           4683                        MOV   R7,#07H                      ;2ABD   7F 07

2ABF 123085         4684                        LCALL Q3085                        ;2ABF   12 30 85

2AC2 8024           4685                        SJMP  Q2AE8                        ;2AC2   80 24

2AC4 122FE7         4686     Q2AC4:             LCALL Q2FE7                        ;2AC4   12 2F E7

2AC7 A804           4687                        MOV   R0,04H                       ;2AC7   A8 04

2AC9 A905           4688                        MOV   R1,05H                       ;2AC9   A9 05

2ACB AA06           4689                        MOV   R2,06H                       ;2ACB   AA 06

2ACD AB07           4690                        MOV   R3,07H                       ;2ACD   AB 07

2ACF AF33           4691                        MOV   R7,33H                       ;2ACF   AF 33

2AD1 AE32           4692                        MOV   R6,32H                       ;2AD1   AE 32

2AD3 AD31           4693                        MOV   R5,31H                       ;2AD3   AD 31

2AD5 AC30           4694                        MOV   R4,30H                       ;2AD5   AC 30

2AD7 12295D         4695                        LCALL Q295D                        ;2AD7   12 29 5D

2ADA EF             4696                        MOV   A,R7                         ;2ADA   EF

2ADB 2430           4697                        ADD   A,#30H                       ;2ADB   24 30

2ADD FB             4698                        MOV   R3,A                         ;2ADD   FB

2ADE AD2E           4699                        MOV   R5,2EH                       ;2ADE   AD 2E

2AE0 7F07           4700                        MOV   R7,#07H                      ;2AE0   7F 07

2AE2 123085         4701                        LCALL Q3085                        ;2AE2   12 30 85

2AE5 752F01         4702                        MOV   2FH,#01H                     ;2AE5   75 2F 01

2AE8 AF33           4703     Q2AE8:             MOV   R7,33H                       ;2AE8   AF 33

2AEA AE32           4704                        MOV   R6,32H                       ;2AEA   AE 32

2AEC AD31           4705                        MOV   R5,31H                       ;2AEC   AD 31

2AEE AC30           4706                        MOV   R4,30H                       ;2AEE   AC 30

2AF0 C004           4707                        PUSH  04H                          ;2AF0   C0 04

2AF2 C005           4708                        PUSH  05H                          ;2AF2   C0 05

2AF4 C006           4709                        PUSH  06H                          ;2AF4   C0 06

2AF6 C007           4710                        PUSH  07H                          ;2AF6   C0 07

A51 MACRO ASSEMBLER  __________V0_0                                                       12/04/2016 21:52:57 PAGE    81

2AF8 122FE7         4711                        LCALL Q2FE7                        ;2AF8   12 2F E7

2AFB A804           4712                        MOV   R0,04H                       ;2AFB   A8 04

2AFD A905           4713                        MOV   R1,05H                       ;2AFD   A9 05

2AFF AA06           4714                        MOV   R2,06H                       ;2AFF   AA 06

2B01 AB07           4715                        MOV   R3,07H                       ;2B01   AB 07

2B03 D007           4716                        POP   07H                          ;2B03   D0 07

2B05 D006           4717                        POP   06H                          ;2B05   D0 06

2B07 D005           4718                        POP   05H                          ;2B07   D0 05

2B09 D004           4719                        POP   04H                          ;2B09   D0 04

2B0B 12295D         4720                        LCALL Q295D                        ;2B0B   12 29 5D

2B0E AC00           4721                        MOV   R4,00H                       ;2B0E   AC 00

2B10 AD01           4722                        MOV   R5,01H                       ;2B10   AD 01

2B12 AE02           4723                        MOV   R6,02H                       ;2B12   AE 02

2B14 AF03           4724                        MOV   R7,03H                       ;2B14   AF 03

2B16 8F33           4725                        MOV   33H,R7                       ;2B16   8F 33

2B18 8E32           4726                        MOV   32H,R6                       ;2B18   8E 32

2B1A 8D31           4727                        MOV   31H,R5                       ;2B1A   8D 31

2B1C 8C30           4728                        MOV   30H,R4                       ;2B1C   8C 30

2B1E 7405           4729                        MOV   A,#05H                       ;2B1E   74 05

2B20 252E           4730                        ADD   A,2EH                        ;2B20   25 2E

2B22 F52E           4731                        MOV   2EH,A                        ;2B22   F5 2E

2B24 052D           4732                        INC   2DH                          ;2B24   05 2D

2B26 E52D           4733                        MOV   A,2DH                        ;2B26   E5 2D

2B28 C3             4734                        CLR   C                            ;2B28   C3

2B29 9407           4735                        SUBB  A,#07H                       ;2B29   94 07

2B2B 5003           4736                        JNC   Q2B30                        ;2B2B   50 03

2B2D 022A7C         4737                        LJMP  Q2A7C                        ;2B2D   02 2A 7C

                    4738     ;==========================================================================

2B30 7B48           4739     Q2B30:             MOV   R3,#48H                      ;2B30   7B 48

2B32 7D28           4740                        MOV   R5,#28H                      ;2B32   7D 28

2B34 7F07           4741                        MOV   R7,#07H                      ;2B34   7F 07

2B36 123085         4742                        LCALL Q3085                        ;2B36   12 30 85

2B39 7B7A           4743                        MOV   R3,#7AH                      ;2B39   7B 7A

2B3B 7D2D           4744                        MOV   R5,#2DH                      ;2B3B   7D 2D

2B3D 7F07           4745                        MOV   R7,#07H                      ;2B3D   7F 07

2B3F 123085         4746                        LCALL Q3085                        ;2B3F   12 30 85

2B42 E512           4747     Q2B42:             MOV   A,12H                        ;2B42   E5 12

2B44 B4010D         4748                        CJNE  A,#01H,Q2B54                 ;2B44   B4 01 0D

2B47 7BFF           4749                        MOV   R3,#0FFH                     ;2B47   7B FF

2B49 7A00           4750                        MOV   R2,#00H                      ;2B49   7A 00

2B4B 7949           4751                        MOV   R1,#49H                      ;2B4B   79 49

2B4D 7D02           4752                        MOV   R5,#02H                      ;2B4D   7D 02

2B4F 7F07           4753                        MOV   R7,#07H                      ;2B4F   7F 07

2B51 1230C9         4754                        LCALL Q30C9                        ;2B51   12 30 C9

2B54 E510           4755     Q2B54:             MOV   A,10H                        ;2B54   E5 10

2B56 24FD           4756                        ADD   A,#0FDH                      ;2B56   24 FD

2B58 B40E00         4757                        CJNE  A,#0EH,Q2B5B                 ;2B58   B4 0E 00

2B5B 4003           4758     Q2B5B:             JC    Q2B60                        ;2B5B   40 03

2B5D 022C0D         4759                        LJMP  Q2C0D                        ;2B5D   02 2C 0D

                    4760     ;==========================================================================

2B60 902B6E         4761     Q2B60:             MOV   DPTR,#2B6EH                  ;2B60   90 2B 6E

2B63 75F003         4762                        MOV   B,#03H                       ;2B63   75 F0 03

2B66 A4             4763                        MUL   AB                           ;2B66   A4

2B67 C583           4764                        XCH   A,DPH                        ;2B67   C5 83

2B69 25F0           4765                        ADD   A,B                          ;2B69   25 F0

2B6B C583           4766                        XCH   A,DPH                        ;2B6B   C5 83

2B6D 73             4767                        JMP   @A+DPTR                      ;2B6D   73

2B6E 022B98         4768                        LJMP  Q2B98                        ;2B6E   02 2B 98

                    4769     ;==========================================================================

2B71 022BA0         4770                        LJMP  Q2BA0                        ;2B71   02 2B A0

                    4771     ;==========================================================================

2B74 022BA8         4772                        LJMP  Q2BA8                        ;2B74   02 2B A8

                    4773     ;==========================================================================

2B77 022BB0         4774                        LJMP  Q2BB0                        ;2B77   02 2B B0

                    4775     ;==========================================================================

2B7A 022BB8         4776                        LJMP  Q2BB8                        ;2B7A   02 2B B8

A51 MACRO ASSEMBLER  __________V0_0                                                       12/04/2016 21:52:57 PAGE    82

                    4777     ;==========================================================================

2B7D 022BC0         4778                        LJMP  Q2BC0                        ;2B7D   02 2B C0

                    4779     ;==========================================================================

2B80 022BC8         4780                        LJMP  Q2BC8                        ;2B80   02 2B C8

                    4781     ;==========================================================================

2B83 022BD0         4782                        LJMP  Q2BD0                        ;2B83   02 2B D0

                    4783     ;==========================================================================

2B86 022BD8         4784                        LJMP  Q2BD8                        ;2B86   02 2B D8

                    4785     ;==========================================================================

2B89 022BE0         4786                        LJMP  Q2BE0                        ;2B89   02 2B E0

                    4787     ;==========================================================================

2B8C 022BE8         4788                        LJMP  Q2BE8                        ;2B8C   02 2B E8

                    4789     ;==========================================================================

2B8F 022BF0         4790                        LJMP  Q2BF0                        ;2B8F   02 2B F0

                    4791     ;==========================================================================

2B92 022BF8         4792                        LJMP  Q2BF8                        ;2B92   02 2B F8

                    4793     ;==========================================================================

2B95 022C00         4794                        LJMP  Q2C00                        ;2B95   02 2C 00

                    4795     ;==========================================================================

2B98 7BFF           4796     Q2B98:             MOV   R3,#0FFH                     ;2B98   7B FF

2B9A 7A00           4797                        MOV   R2,#00H                      ;2B9A   7A 00

2B9C 7954           4798                        MOV   R1,#54H                      ;2B9C   79 54

2B9E 8066           4799                        SJMP  Q2C06                        ;2B9E   80 66

2BA0 7BFF           4800     Q2BA0:             MOV   R3,#0FFH                     ;2BA0   7B FF

2BA2 7A00           4801                        MOV   R2,#00H                      ;2BA2   7A 00

2BA4 795C           4802                        MOV   R1,#5CH                      ;2BA4   79 5C

2BA6 805E           4803                        SJMP  Q2C06                        ;2BA6   80 5E

2BA8 7BFF           4804     Q2BA8:             MOV   R3,#0FFH                     ;2BA8   7B FF

2BAA 7A00           4805                        MOV   R2,#00H                      ;2BAA   7A 00

2BAC 7964           4806                        MOV   R1,#64H                      ;2BAC   79 64

2BAE 8056           4807                        SJMP  Q2C06                        ;2BAE   80 56

2BB0 7BFF           4808     Q2BB0:             MOV   R3,#0FFH                     ;2BB0   7B FF

2BB2 7A00           4809                        MOV   R2,#00H                      ;2BB2   7A 00

2BB4 796C           4810                        MOV   R1,#6CH                      ;2BB4   79 6C

2BB6 804E           4811                        SJMP  Q2C06                        ;2BB6   80 4E

2BB8 7BFF           4812     Q2BB8:             MOV   R3,#0FFH                     ;2BB8   7B FF

2BBA 7A00           4813                        MOV   R2,#00H                      ;2BBA   7A 00

2BBC 7974           4814                        MOV   R1,#74H                      ;2BBC   79 74

2BBE 8046           4815                        SJMP  Q2C06                        ;2BBE   80 46

2BC0 7BFF           4816     Q2BC0:             MOV   R3,#0FFH                     ;2BC0   7B FF

2BC2 7A00           4817                        MOV   R2,#00H                      ;2BC2   7A 00

2BC4 797C           4818                        MOV   R1,#7CH                      ;2BC4   79 7C

2BC6 803E           4819                        SJMP  Q2C06                        ;2BC6   80 3E

2BC8 7BFF           4820     Q2BC8:             MOV   R3,#0FFH                     ;2BC8   7B FF

2BCA 7A00           4821                        MOV   R2,#00H                      ;2BCA   7A 00

2BCC 7984           4822                        MOV   R1,#84H                      ;2BCC   79 84

2BCE 8036           4823                        SJMP  Q2C06                        ;2BCE   80 36

2BD0 7BFF           4824     Q2BD0:             MOV   R3,#0FFH                     ;2BD0   7B FF

2BD2 7A00           4825                        MOV   R2,#00H                      ;2BD2   7A 00

2BD4 798C           4826                        MOV   R1,#8CH                      ;2BD4   79 8C

2BD6 802E           4827                        SJMP  Q2C06                        ;2BD6   80 2E

2BD8 7BFF           4828     Q2BD8:             MOV   R3,#0FFH                     ;2BD8   7B FF

2BDA 7A00           4829                        MOV   R2,#00H                      ;2BDA   7A 00

2BDC 7994           4830                        MOV   R1,#94H                      ;2BDC   79 94

2BDE 8026           4831                        SJMP  Q2C06                        ;2BDE   80 26

2BE0 7BFF           4832     Q2BE0:             MOV   R3,#0FFH                     ;2BE0   7B FF

2BE2 7A00           4833                        MOV   R2,#00H                      ;2BE2   7A 00

2BE4 799C           4834                        MOV   R1,#9CH                      ;2BE4   79 9C

2BE6 801E           4835                        SJMP  Q2C06                        ;2BE6   80 1E

2BE8 7BFF           4836     Q2BE8:             MOV   R3,#0FFH                     ;2BE8   7B FF

2BEA 7A00           4837                        MOV   R2,#00H                      ;2BEA   7A 00

2BEC 79A4           4838                        MOV   R1,#0A4H                     ;2BEC   79 A4

2BEE 8016           4839                        SJMP  Q2C06                        ;2BEE   80 16

2BF0 7BFF           4840     Q2BF0:             MOV   R3,#0FFH                     ;2BF0   7B FF

2BF2 7A00           4841                        MOV   R2,#00H                      ;2BF2   7A 00

2BF4 79AC           4842                        MOV   R1,#0ACH                     ;2BF4   79 AC

A51 MACRO ASSEMBLER  __________V0_0                                                       12/04/2016 21:52:57 PAGE    83

2BF6 800E           4843                        SJMP  Q2C06                        ;2BF6   80 0E

2BF8 7BFF           4844     Q2BF8:             MOV   R3,#0FFH                     ;2BF8   7B FF

2BFA 7A00           4845                        MOV   R2,#00H                      ;2BFA   7A 00

2BFC 79B4           4846                        MOV   R1,#0B4H                     ;2BFC   79 B4

2BFE 8006           4847                        SJMP  Q2C06                        ;2BFE   80 06

2C00 7BFF           4848     Q2C00:             MOV   R3,#0FFH                     ;2C00   7B FF

2C02 7A00           4849                        MOV   R2,#00H                      ;2C02   7A 00

2C04 79BC           4850                        MOV   R1,#0BCH                     ;2C04   79 BC

2C06 7D38           4851     Q2C06:             MOV   R5,#38H                      ;2C06   7D 38

2C08 7F07           4852                        MOV   R7,#07H                      ;2C08   7F 07

2C0A 1230C9         4853                        LCALL Q30C9                        ;2C0A   12 30 C9

2C0D E511           4854     Q2C0D:             MOV   A,11H                        ;2C0D   E5 11

2C0F 24FE           4855                        ADD   A,#0FEH                      ;2C0F   24 FE

2C11 600F           4856                        JZ    Q2C22                        ;2C11   60 0F

2C13 14             4857                        DEC   A                            ;2C13   14

2C14 6014           4858                        JZ    Q2C2A                        ;2C14   60 14

2C16 2402           4859                        ADD   A,#02H                       ;2C16   24 02

2C18 701D           4860                        JNZ   Q2C37                        ;2C18   70 1D

2C1A 7BFF           4861                        MOV   R3,#0FFH                     ;2C1A   7B FF

2C1C 7A00           4862                        MOV   R2,#00H                      ;2C1C   7A 00

2C1E 79C4           4863                        MOV   R1,#0C4H                     ;2C1E   79 C4

2C20 800E           4864                        SJMP  Q2C30                        ;2C20   80 0E

2C22 7BFF           4865     Q2C22:             MOV   R3,#0FFH                     ;2C22   7B FF

2C24 7A00           4866                        MOV   R2,#00H                      ;2C24   7A 00

2C26 79CB           4867                        MOV   R1,#0CBH                     ;2C26   79 CB

2C28 8006           4868                        SJMP  Q2C30                        ;2C28   80 06

2C2A 7BFF           4869     Q2C2A:             MOV   R3,#0FFH                     ;2C2A   7B FF

2C2C 7A00           4870                        MOV   R2,#00H                      ;2C2C   7A 00

2C2E 79D2           4871                        MOV   R1,#0D2H                     ;2C2E   79 D2

2C30 7D61           4872     Q2C30:             MOV   R5,#61H                      ;2C30   7D 61

2C32 7F07           4873                        MOV   R7,#07H                      ;2C32   7F 07

2C34 1230C9         4874                        LCALL Q30C9                        ;2C34   12 30 C9

2C37 22             4875     Q2C37:             RET                                ;2C37   22

                    4876     ;==========================================================================

2C38 C0E0C0F0       4877     Q2C38:           DB 0C0H,0E0H,0C0H,0F0H,0C0H, 83H,0C0H, 82H     ;........

2C3C C083C082                
2C40 C0D075D0       4878     Q2C40:           DB 0C0H,0D0H, 75H,0D0H, 00H,0C0H, 07H,0E5H     ;..u.....

2C44 00C007E5                
2C48 24F58CE5       4879     Q2C48:           DB  24H,0F5H, 8CH,0E5H, 25H,0F5H, 8AH, 05H     ;$...%...

2C4C 25F58A05                
2C50 14E51470       4880     Q2C50:           DB  14H,0E5H, 14H, 70H, 02H, 05H, 13H,0E5H     ;...p....

2C54 020513E5                
2C58 1024FDB4       4881     Q2C58:           DB  10H, 24H,0FDH,0B4H, 07H, 00H, 40H, 03H     ;.$....@.

2C5C 07004003                
2C60 022DA690       4882     Q2C60:           DB  02H, 2DH,0A6H, 90H, 2CH, 71H, 75H,0F0H     ;.-..,qu.

2C64 2C7175F0                
2C68 03A4C583       4883     Q2C68:           DB  03H,0A4H,0C5H, 83H, 25H,0F0H,0C5H, 83H     ;....%...

2C6C 25F0C583                
2C70 73022C86       4884     Q2C70:           DB  73H, 02H, 2CH, 86H, 02H, 2CH,0B2H, 02H     ;s.,..,..

2C74 022CB202                
2C78 2CDE022D       4885     Q2C78:           DB  2CH,0DEH, 02H, 2DH, 0AH, 02H, 2DH, 35H     ;,..-..-5

2C7C 0A022D35                
2C80 022D5D02       4886     Q2C80:           DB  02H, 2DH, 5DH, 02H, 2DH, 85H,0C3H,0E5H     ;.-].-...

2C84 2D85C3E5                
2C88 149464E5       4887     Q2C88:           DB  14H, 94H, 64H,0E5H, 13H, 94H, 00H, 50H     ;..d....P

2C8C 13940050                
2C90 03022DA6       4888     Q2C90:           DB  03H, 02H, 2DH,0A6H, 7FH, 01H, 12H, 32H     ;..-...2

2C94 7F011232                
2C98 3A740025       4889     Q2C98:           DB  3AH, 74H, 00H, 25H, 0EH,0F5H, 82H, 74H     ;:t.%...t

2C9C 0EF58274                
2CA0 02350DF5       4890     Q2CA0:           DB  02H, 35H, 0DH,0F5H, 83H,0EFH,0F0H, 05H     ;.5......

2CA4 83EFF005                
2CA8 0EE50E70       4891     Q2CA8:           DB  0EH,0E5H, 0EH, 70H, 2EH, 05H, 0DH, 02H     ;...p....

2CAC 2E050D02                
2CB0 2DA0C3E5       4892     Q2CB0:           DB  2DH,0A0H,0C3H,0E5H, 14H, 94H, 32H,0E5H     ;-.....2.

2CB4 149432E5                
A51 MACRO ASSEMBLER  __________V0_0                                                       12/04/2016 21:52:57 PAGE    84

2CB8 13940050       4893     Q2CB8:           DB  13H, 94H, 00H, 50H, 03H, 02H, 2DH,0A6H     ;...P..-.

2CBC 03022DA6                
2CC0 7F011232       4894     Q2CC0:           DB  7FH, 01H, 12H, 32H, 3AH, 74H, 00H, 25H     ;..2:t.%

2CC4 3A740025                
2CC8 0EF58274       4895     Q2CC8:           DB  0EH,0F5H, 82H, 74H, 02H, 35H, 0DH,0F5H     ;...t.5..

2CCC 02350DF5                
2CD0 83EFF005       4896     Q2CD0:           DB  83H,0EFH,0F0H, 05H, 0EH,0E5H, 0EH, 70H     ;.......p

2CD4 0EE50E70                
2CD8 02050D02       4897     Q2CD8:           DB  02H, 05H, 0DH, 02H, 2DH,0A0H,0C3H,0E5H     ;....-...

2CDC 2DA0C3E5                
2CE0 149414E5       4898     Q2CE0:           DB  14H, 94H, 14H,0E5H, 13H, 94H, 00H, 50H     ;.......P

2CE4 13940050                
2CE8 03022DA6       4899     Q2CE8:           DB  03H, 02H, 2DH,0A6H, 7FH, 01H, 12H, 32H     ;..-...2

2CEC 7F011232                
2CF0 3A740025       4900     Q2CF0:           DB  3AH, 74H, 00H, 25H, 0EH,0F5H, 82H, 74H     ;:t.%...t

2CF4 0EF58274                
2CF8 02350DF5       4901     Q2CF8:           DB  02H, 35H, 0DH,0F5H, 83H,0EFH,0F0H, 05H     ;.5......

2CFC 83EFF005                
2D00 0EE50E70       4902     Q2D00:           DB  0EH,0E5H, 0EH, 70H, 02H, 05H, 0DH, 02H     ;...p....

2D04 02050D02                
2D08 2DA0C3E5       4903     Q2D08:           DB  2DH,0A0H,0C3H,0E5H, 14H, 94H, 0AH,0E5H     ;-.......

2D0C 14940AE5                
2D10 13940050       4904     Q2D10:           DB  13H, 94H, 00H, 50H, 03H, 02H, 2DH,0A6H     ;...P..-.

2D14 03022DA6                
2D18 7F011232       4905     Q2D18:           DB  7FH, 01H, 12H, 32H, 3AH, 74H, 00H, 25H     ;..2:t.%

2D1C 3A740025                
2D20 0EF58274       4906     Q2D20:           DB  0EH,0F5H, 82H, 74H, 02H, 35H, 0DH,0F5H     ;...t.5..

2D24 02350DF5                
2D28 83EFF005       4907     Q2D28:           DB  83H,0EFH,0F0H, 05H, 0EH,0E5H, 0EH, 70H     ;.......p

2D2C 0EE50E70                
2D30 02050D80       4908     Q2D30:           DB  02H, 05H, 0DH, 80H, 6BH,0C3H,0E5H, 14H     ;....k...

2D34 6BC3E514                
2D38 9405E513       4909     Q2D38:           DB  94H, 05H,0E5H, 13H, 94H, 00H, 40H, 66H     ;......@f

2D3C 94004066                
2D40 7F011232       4910     Q2D40:           DB  7FH, 01H, 12H, 32H, 3AH, 74H, 00H, 25H     ;..2:t.%

2D44 3A740025                
2D48 0EF58274       4911     Q2D48:           DB  0EH,0F5H, 82H, 74H, 02H, 35H, 0DH,0F5H     ;...t.5..

2D4C 02350DF5                
2D50 83EFF005       4912     Q2D50:           DB  83H,0EFH,0F0H, 05H, 0EH,0E5H, 0EH, 70H     ;.......p

2D54 0EE50E70                
2D58 02050D80       4913     Q2D58:           DB  02H, 05H, 0DH, 80H, 43H,0C3H,0E5H, 14H     ;....C...

2D5C 43C3E514                
2D60 9402E513       4914     Q2D60:           DB  94H, 02H,0E5H, 13H, 94H, 00H, 40H, 3EH     ;......@>

2D64 9400403E                
2D68 7F011232       4915     Q2D68:           DB  7FH, 01H, 12H, 32H, 3AH, 74H, 00H, 25H     ;..2:t.%

2D6C 3A740025                
2D70 0EF58274       4916     Q2D70:           DB  0EH,0F5H, 82H, 74H, 02H, 35H, 0DH,0F5H     ;...t.5..

2D74 02350DF5                
2D78 83EFF005       4917     Q2D78:           DB  83H,0EFH,0F0H, 05H, 0EH,0E5H, 0EH, 70H     ;.......p

2D7C 0EE50E70                
2D80 02050D80       4918     Q2D80:           DB  02H, 05H, 0DH, 80H, 1BH, 7FH, 01H, 12H     ;.......

2D84 1B7F0112                
2D88 323A7400       4919     Q2D88:           DB  32H, 3AH, 74H, 00H, 25H, 0EH,0F5H, 82H     ;2:t.%...

2D8C 250EF582                
2D90 7402350D       4920     Q2D90:           DB  74H, 02H, 35H, 0DH,0F5H, 83H,0EFH,0F0H     ;t.5.....

2D94 F583EFF0                
2D98 050EE50E       4921     Q2D98:           DB  05H, 0EH,0E5H, 0EH, 70H, 02H, 05H, 0DH     ;....p...

2D9C 7002050D                
2DA0 75130075       4922     Q2DA0:           DB  75H, 13H, 00H, 75H, 14H, 00H,0C3H,0E5H     ;u..u....

2DA4 1400C3E5                
2DA8 0E94FFE5       4923     Q2DA8:           DB  0EH, 94H,0FFH,0E5H, 0DH, 94H, 01H, 40H     ;.......@

2DAC 0D940140                
2DB0 06750D01       4924     Q2DB0:           DB  06H, 75H, 0DH, 01H, 75H, 0EH,0FFH,0D0H     ;.u..u...

2DB4 750EFFD0                
2DB8 07D0D0D0       4925     Q2DB8:           DB  07H,0D0H,0D0H,0D0H, 82H,0D0H, 83H,0D0H     ;........

2DBC 82D083D0                
A51 MACRO ASSEMBLER  __________V0_0                                                       12/04/2016 21:52:57 PAGE    85

2DC0 F0D0E032       4926     Q2DC0:           DB 0F0H,0D0H,0E0H, 32H ;...2

                    4927     ;==========================================================================

2DC4 8F2C           4928     Q2DC4:             MOV   2CH,R7                       ;2DC4   8F 2C

2DC6 8D2D           4929                        MOV   2DH,R5                       ;2DC6   8D 2D

2DC8 8B2E           4930                        MOV   2EH,R3                       ;2DC8   8B 2E

2DCA E4             4931                        CLR   A                            ;2DCA   E4

2DCB F534           4932                        MOV   34H,A                        ;2DCB   F5 34

2DCD E534           4933     Q2DCD:             MOV   A,34H                        ;2DCD   E5 34

2DCF C3             4934                        CLR   C                            ;2DCF   C3

2DD0 952F           4935                        SUBB  A,2FH                        ;2DD0   95 2F

2DD2 4003           4936                        JC    Q2DD7                        ;2DD2   40 03

2DD4 022EC5         4937                        LJMP  Q2EC5                        ;2DD4   02 2E C5

                    4938     ;==========================================================================

2DD7 E52C           4939     Q2DD7:             MOV   A,2CH                        ;2DD7   E5 2C

2DD9 24B0           4940                        ADD   A,#0B0H                      ;2DD9   24 B0

2DDB FF             4941                        MOV   R7,A                         ;2DDB   FF

2DDC 12317D         4942                        LCALL Q317D                        ;2DDC   12 31 7D

2DDF E52E           4943                        MOV   A,2EH                        ;2DDF   E5 2E

2DE1 8534F0         4944                        MOV   B,34H                        ;2DE1   85 34 F0

2DE4 A4             4945                        MUL   AB                           ;2DE4   A4

2DE5 FF             4946                        MOV   R7,A                         ;2DE5   FF

2DE6 E52D           4947                        MOV   A,2DH                        ;2DE6   E5 2D

2DE8 2404           4948                        ADD   A,#04H                       ;2DE8   24 04

2DEA FD             4949                        MOV   R5,A                         ;2DEA   FD

2DEB E4             4950                        CLR   A                            ;2DEB   E4

2DEC 33             4951                        RLC   A                            ;2DEC   33

2DED CD             4952                        XCH   A,R5                         ;2DED   CD

2DEE 2F             4953                        ADD   A,R7                         ;2DEE   2F

2DEF FF             4954                        MOV   R7,A                         ;2DEF   FF

2DF0 ED             4955                        MOV   A,R5                         ;2DF0   ED

2DF1 35F0           4956                        ADDC  A,B                          ;2DF1   35 F0

2DF3 FE             4957                        MOV   R6,A                         ;2DF3   FE

2DF4 EF             4958                        MOV   A,R7                         ;2DF4   EF

2DF5 7804           4959                        MOV   R0,#04H                      ;2DF5   78 04

2DF7 CE             4960     Q2DF7:             XCH   A,R6                         ;2DF7   CE

2DF8 A2E7           4961                        MOV   C,ACC.7                      ;2DF8   A2 E7

2DFA 13             4962                        RRC   A                            ;2DFA   13

2DFB CE             4963                        XCH   A,R6                         ;2DFB   CE

2DFC 13             4964                        RRC   A                            ;2DFC   13

2DFD D8F8           4965                        DJNZ  R0,Q2DF7                     ;2DFD   D8 F8

2DFF 2410           4966                        ADD   A,#10H                       ;2DFF   24 10

2E01 FF             4967                        MOV   R7,A                         ;2E01   FF

2E02 12317D         4968                        LCALL Q317D                        ;2E02   12 31 7D

2E05 E52E           4969                        MOV   A,2EH                        ;2E05   E5 2E

2E07 8534F0         4970                        MOV   B,34H                        ;2E07   85 34 F0

2E0A A4             4971                        MUL   AB                           ;2E0A   A4

2E0B FF             4972                        MOV   R7,A                         ;2E0B   FF

2E0C E52D           4973                        MOV   A,2DH                        ;2E0C   E5 2D

2E0E 2404           4974                        ADD   A,#04H                       ;2E0E   24 04

2E10 2F             4975                        ADD   A,R7                         ;2E10   2F

2E11 540F           4976                        ANL   A,#0FH                       ;2E11   54 0F

2E13 FF             4977                        MOV   R7,A                         ;2E13   FF

2E14 12317D         4978                        LCALL Q317D                        ;2E14   12 31 7D

2E17 E4             4979                        CLR   A                            ;2E17   E4

2E18 F533           4980                        MOV   33H,A                        ;2E18   F5 33

2E1A E533           4981     Q2E1A:             MOV   A,33H                        ;2E1A   E5 33

2E1C C3             4982                        CLR   C                            ;2E1C   C3

2E1D 952E           4983                        SUBB  A,2EH                        ;2E1D   95 2E

2E1F 5026           4984                        JNC   Q2E47                        ;2E1F   50 26

2E21 AB30           4985                        MOV   R3,30H                       ;2E21   AB 30

2E23 7E00           4986                        MOV   R6,#00H                      ;2E23   7E 00

2E25 E532           4987                        MOV   A,32H                        ;2E25   E5 32

2E27 2533           4988                        ADD   A,33H                        ;2E27   25 33

2E29 F9             4989                        MOV   R1,A                         ;2E29   F9

2E2A EE             4990                        MOV   A,R6                         ;2E2A   EE

2E2B 3531           4991                        ADDC  A,31H                        ;2E2B   35 31

A51 MACRO ASSEMBLER  __________V0_0                                                       12/04/2016 21:52:57 PAGE    86

2E2D FA             4992                        MOV   R2,A                         ;2E2D   FA

2E2E E52E           4993                        MOV   A,2EH                        ;2E2E   E5 2E

2E30 25E0           4994                        ADD   A,ACC                        ;2E30   25 E0

2E32 8534F0         4995                        MOV   B,34H                        ;2E32   85 34 F0

2E35 A4             4996                        MUL   AB                           ;2E35   A4

2E36 29             4997                        ADD   A,R1                         ;2E36   29

2E37 F9             4998                        MOV   R1,A                         ;2E37   F9

2E38 EA             4999                        MOV   A,R2                         ;2E38   EA

2E39 35F0           5000                        ADDC  A,B                          ;2E39   35 F0

2E3B FA             5001                        MOV   R2,A                         ;2E3B   FA

2E3C 122822         5002                        LCALL Q2822                        ;2E3C   12 28 22

2E3F FF             5003                        MOV   R7,A                         ;2E3F   FF

2E40 123209         5004                        LCALL Q3209                        ;2E40   12 32 09

2E43 0533           5005                        INC   33H                          ;2E43   05 33

2E45 80D3           5006                        SJMP  Q2E1A                        ;2E45   80 D3

2E47 E52C           5007     Q2E47:             MOV   A,2CH                        ;2E47   E5 2C

2E49 24B1           5008                        ADD   A,#0B1H                      ;2E49   24 B1

2E4B FF             5009                        MOV   R7,A                         ;2E4B   FF

2E4C 12317D         5010                        LCALL Q317D                        ;2E4C   12 31 7D

2E4F E52E           5011                        MOV   A,2EH                        ;2E4F   E5 2E

2E51 8534F0         5012                        MOV   B,34H                        ;2E51   85 34 F0

2E54 A4             5013                        MUL   AB                           ;2E54   A4

2E55 FF             5014                        MOV   R7,A                         ;2E55   FF

2E56 E52D           5015                        MOV   A,2DH                        ;2E56   E5 2D

2E58 2404           5016                        ADD   A,#04H                       ;2E58   24 04

2E5A FD             5017                        MOV   R5,A                         ;2E5A   FD

2E5B E4             5018                        CLR   A                            ;2E5B   E4

2E5C 33             5019                        RLC   A                            ;2E5C   33

2E5D CD             5020                        XCH   A,R5                         ;2E5D   CD

2E5E 2F             5021                        ADD   A,R7                         ;2E5E   2F

2E5F FF             5022                        MOV   R7,A                         ;2E5F   FF

2E60 ED             5023                        MOV   A,R5                         ;2E60   ED

2E61 35F0           5024                        ADDC  A,B                          ;2E61   35 F0

2E63 FE             5025                        MOV   R6,A                         ;2E63   FE

2E64 EF             5026                        MOV   A,R7                         ;2E64   EF

2E65 7804           5027                        MOV   R0,#04H                      ;2E65   78 04

2E67 CE             5028     Q2E67:             XCH   A,R6                         ;2E67   CE

2E68 A2E7           5029                        MOV   C,ACC.7                      ;2E68   A2 E7

2E6A 13             5030                        RRC   A                            ;2E6A   13

2E6B CE             5031                        XCH   A,R6                         ;2E6B   CE

2E6C 13             5032                        RRC   A                            ;2E6C   13

2E6D D8F8           5033                        DJNZ  R0,Q2E67                     ;2E6D   D8 F8

2E6F 2410           5034                        ADD   A,#10H                       ;2E6F   24 10

2E71 FF             5035                        MOV   R7,A                         ;2E71   FF

2E72 12317D         5036                        LCALL Q317D                        ;2E72   12 31 7D

2E75 E52E           5037                        MOV   A,2EH                        ;2E75   E5 2E

2E77 8534F0         5038                        MOV   B,34H                        ;2E77   85 34 F0

2E7A A4             5039                        MUL   AB                           ;2E7A   A4

2E7B FF             5040                        MOV   R7,A                         ;2E7B   FF

2E7C E52D           5041                        MOV   A,2DH                        ;2E7C   E5 2D

2E7E 2404           5042                        ADD   A,#04H                       ;2E7E   24 04

2E80 2F             5043                        ADD   A,R7                         ;2E80   2F

2E81 540F           5044                        ANL   A,#0FH                       ;2E81   54 0F

2E83 FF             5045                        MOV   R7,A                         ;2E83   FF

2E84 12317D         5046                        LCALL Q317D                        ;2E84   12 31 7D

2E87 E4             5047                        CLR   A                            ;2E87   E4

2E88 F533           5048                        MOV   33H,A                        ;2E88   F5 33

2E8A E533           5049     Q2E8A:             MOV   A,33H                        ;2E8A   E5 33

2E8C C3             5050                        CLR   C                            ;2E8C   C3

2E8D 952E           5051                        SUBB  A,2EH                        ;2E8D   95 2E

2E8F 502F           5052                        JNC   Q2EC0                        ;2E8F   50 2F

2E91 AB30           5053                        MOV   R3,30H                       ;2E91   AB 30

2E93 7E00           5054                        MOV   R6,#00H                      ;2E93   7E 00

2E95 E532           5055                        MOV   A,32H                        ;2E95   E5 32

2E97 2533           5056                        ADD   A,33H                        ;2E97   25 33

2E99 F9             5057                        MOV   R1,A                         ;2E99   F9

A51 MACRO ASSEMBLER  __________V0_0                                                       12/04/2016 21:52:57 PAGE    87

2E9A EE             5058                        MOV   A,R6                         ;2E9A   EE

2E9B 3531           5059                        ADDC  A,31H                        ;2E9B   35 31

2E9D FA             5060                        MOV   R2,A                         ;2E9D   FA

2E9E E52E           5061                        MOV   A,2EH                        ;2E9E   E5 2E

2EA0 25E0           5062                        ADD   A,ACC                        ;2EA0   25 E0

2EA2 8534F0         5063                        MOV   B,34H                        ;2EA2   85 34 F0

2EA5 A4             5064                        MUL   AB                           ;2EA5   A4

2EA6 29             5065                        ADD   A,R1                         ;2EA6   29

2EA7 F9             5066                        MOV   R1,A                         ;2EA7   F9

2EA8 EA             5067                        MOV   A,R2                         ;2EA8   EA

2EA9 35F0           5068                        ADDC  A,B                          ;2EA9   35 F0

2EAB FA             5069                        MOV   R2,A                         ;2EAB   FA

2EAC 7E00           5070                        MOV   R6,#00H                      ;2EAC   7E 00

2EAE E9             5071                        MOV   A,R1                         ;2EAE   E9

2EAF 252E           5072                        ADD   A,2EH                        ;2EAF   25 2E

2EB1 F9             5073                        MOV   R1,A                         ;2EB1   F9

2EB2 EE             5074                        MOV   A,R6                         ;2EB2   EE

2EB3 3A             5075                        ADDC  A,R2                         ;2EB3   3A

2EB4 FA             5076                        MOV   R2,A                         ;2EB4   FA

2EB5 122822         5077                        LCALL Q2822                        ;2EB5   12 28 22

2EB8 FF             5078                        MOV   R7,A                         ;2EB8   FF

2EB9 123209         5079                        LCALL Q3209                        ;2EB9   12 32 09

2EBC 0533           5080                        INC   33H                          ;2EBC   05 33

2EBE 80CA           5081                        SJMP  Q2E8A                        ;2EBE   80 CA

2EC0 0534           5082     Q2EC0:             INC   34H                          ;2EC0   05 34

2EC2 022DCD         5083                        LJMP  Q2DCD                        ;2EC2   02 2D CD

                    5084     ;==========================================================================

2EC5 22             5085     Q2EC5:             RET                                ;2EC5   22

                    5086     ;==========================================================================

2EC6 C0E0C0F0       5087     Q2EC6:           DB 0C0H,0E0H,0C0H,0F0H,0C0H, 83H,0C0H, 82H     ;........

2ECA C083C082                
2ECE C0D075D0       5088     Q2ECE:           DB 0C0H,0D0H, 75H,0D0H, 00H,0C0H, 00H,0C0H     ;..u.....

2ED2 00C000C0                
2ED6 01C002C0       5089     Q2ED6:           DB  01H,0C0H, 02H,0C0H, 03H,0C0H, 04H,0C0H     ;........

2EDA 03C004C0                
2EDE 05C006C0       5090     Q2EDE:           DB  05H,0C0H, 06H,0C0H, 07H, 20H,0D8H, 03H     ;........

2EE2 0720D803                
2EE6 022F6CC2       5091     Q2EE6:           DB  02H, 2FH, 6CH,0C2H,0D8H, 74H, 50H, 25H     ;./l..tP%

2EEA D8745025                
2EEE 1EF51E74       5092     Q2EEE:           DB  1EH,0F5H, 1EH, 74H,0C3H, 35H, 1DH,0F5H     ;...t.5..

2EF2 C3351DF5                
2EF6 1D851EEA       5093     Q2EF6:           DB  1DH, 85H, 1EH,0EAH,0E5H, 1DH,0F5H,0FAH     ;........

2EFA E51DF5FA                
2EFE 0516E516       5094     Q2EFE:           DB  05H, 16H,0E5H, 16H, 70H, 02H, 05H, 15H     ;....p...

2F02 70020515                
2F06 C39432E5       5095     Q2F06:           DB 0C3H, 94H, 32H,0E5H, 15H, 94H, 00H, 40H     ;..2....@

2F0A 15940040                
2F0E 5DC2ABC2       5096     Q2F0E:           DB  5DH,0C2H,0ABH,0C2H, 8EH,0AFH, 8DH,0EFH     ;].......

2F12 8EAF8DEF                
2F16 FEAD8B7C       5097     Q2F16:           DB 0FEH,0ADH, 8BH, 7CH, 00H,0E4H, 2DH,0FFH     ;...|..-.

2F1A 00E42DFF                
2F1E EC3ECF24       5098     Q2F1E:           DB 0ECH, 3EH,0CFH, 24H, 50H,0CFH, 34H,0C3H     ;.>.$P.4.

2F22 50CF34C3                
2F26 FEE4FDC0       5099     Q2F26:           DB 0FEH,0E4H,0FDH,0C0H, 04H,0C0H, 05H,0C0H     ;........

2F2A 04C005C0                
2F2E 06C007AE       5100     Q2F2E:           DB  06H,0C0H, 07H,0AEH, 17H,0AFH, 18H, 7BH     ;.......{

2F32 17AF187B                
2F36 507AC3F9       5101     Q2F36:           DB  50H, 7AH,0C3H,0F9H,0F8H, 12H, 28H,0D2H     ;Pz....(.

2F3A F81228D2                
2F3E D003D002       5102     Q2F3E:           DB 0D0H, 03H,0D0H, 02H,0D0H, 01H,0D0H, 00H     ;........

2F42 D001D000                
2F46 EF2BF50C       5103     Q2F46:           DB 0EFH, 2BH,0F5H, 0CH,0EEH, 3AH,0F5H, 0BH     ;.+...:..

2F4A EE3AF50B                
2F4E ED39F50A       5104     Q2F4E:           DB 0EDH, 39H,0F5H, 0AH,0ECH, 38H,0F5H, 09H     ;.9...8..

2F52 EC38F509                
2F56 758D3C75       5105     Q2F56:           DB  75H, 8DH, 3CH, 75H, 8BH,0B0H, 75H, 17H     ;u.<u..u.

A51 MACRO ASSEMBLER  __________V0_0                                                       12/04/2016 21:52:57 PAGE    88

2F5A 8BB07517                
2F5E 00751800       5106     Q2F5E:           DB  00H, 75H, 18H, 00H, 75H, 15H, 00H, 75H     ;.u..u..u

2F62 75150075                
2F66 1600D2AB       5107     Q2F66:           DB  16H, 00H,0D2H,0ABH,0D2H, 8EH,0D0H, 07H     ;........

2F6A D28ED007                
2F6E D006D005       5108     Q2F6E:           DB 0D0H, 06H,0D0H, 05H,0D0H, 04H,0D0H, 03H     ;........

2F72 D004D003                
2F76 D002D001       5109     Q2F76:           DB 0D0H, 02H,0D0H, 01H,0D0H, 00H,0D0H,0D0H     ;........

2F7A D000D0D0                
2F7E D082D083       5110     Q2F7E:           DB 0D0H, 82H,0D0H, 83H,0D0H,0F0H,0D0H,0E0H     ;........

2F82 D0F0D0E0                
2F86 32             5111     Q2F86:           DB  32H        ;2

                    5112     ;==========================================================================

2F87 A907           5113     Q2F87:             MOV   R1,07H                       ;2F87   A9 07

2F89 E4             5114                        CLR   A                            ;2F89   E4

2F8A FD             5115                        MOV   R5,A                         ;2F8A   FD

2F8B FC             5116                        MOV   R4,A                         ;2F8B   FC

2F8C FB             5117                        MOV   R3,A                         ;2F8C   FB

2F8D EB             5118     Q2F8D:             MOV   A,R3                         ;2F8D   EB

2F8E 24B0           5119                        ADD   A,#0B0H                      ;2F8E   24 B0

2F90 FF             5120                        MOV   R7,A                         ;2F90   FF

2F91 12317D         5121                        LCALL Q317D                        ;2F91   12 31 7D

2F94 7F10           5122                        MOV   R7,#10H                      ;2F94   7F 10

2F96 12317D         5123                        LCALL Q317D                        ;2F96   12 31 7D

2F99 7F04           5124                        MOV   R7,#04H                      ;2F99   7F 04

2F9B 12317D         5125                        LCALL Q317D                        ;2F9B   12 31 7D

2F9E E4             5126                        CLR   A                            ;2F9E   E4

2F9F FA             5127                        MOV   R2,A                         ;2F9F   FA

2FA0 0D             5128     Q2FA0:             INC   R5                           ;2FA0   0D

2FA1 BD0001         5129                        CJNE  R5,#00H,Q2FA5                ;2FA1   BD 00 01

2FA4 0C             5130                        INC   R4                           ;2FA4   0C

2FA5 E9             5131     Q2FA5:             MOV   A,R1                         ;2FA5   E9

2FA6 7010           5132                        JNZ   Q2FB8                        ;2FA6   70 10

2FA8 7498           5133                        MOV   A,#98H                       ;2FA8   74 98

2FAA 2D             5134                        ADD   A,R5                         ;2FAA   2D

2FAB F582           5135                        MOV   DPL,A                        ;2FAB   F5 82

2FAD 7404           5136                        MOV   A,#04H                       ;2FAD   74 04

2FAF 3C             5137                        ADDC  A,R4                         ;2FAF   3C

2FB0 F583           5138                        MOV   DPH,A                        ;2FB0   F5 83

2FB2 E4             5139                        CLR   A                            ;2FB2   E4

2FB3 93             5140                        MOVC  A,@A+DPTR                    ;2FB3   93

2FB4 FF             5141                        MOV   R7,A                         ;2FB4   FF

2FB5 123209         5142                        LCALL Q3209                        ;2FB5   12 32 09

2FB8 B90110         5143     Q2FB8:             CJNE  R1,#01H,Q2FCB                ;2FB8   B9 01 10

2FBB 7411           5144                        MOV   A,#11H                       ;2FBB   74 11

2FBD 2D             5145                        ADD   A,R5                         ;2FBD   2D

2FBE F582           5146                        MOV   DPL,A                        ;2FBE   F5 82

2FC0 7408           5147                        MOV   A,#08H                       ;2FC0   74 08

2FC2 3C             5148                        ADDC  A,R4                         ;2FC2   3C

2FC3 F583           5149                        MOV   DPH,A                        ;2FC3   F5 83

2FC5 E4             5150                        CLR   A                            ;2FC5   E4

2FC6 93             5151                        MOVC  A,@A+DPTR                    ;2FC6   93

2FC7 FF             5152                        MOV   R7,A                         ;2FC7   FF

2FC8 123209         5153                        LCALL Q3209                        ;2FC8   12 32 09

2FCB B90210         5154     Q2FCB:             CJNE  R1,#02H,Q2FDE                ;2FCB   B9 02 10

2FCE 748A           5155                        MOV   A,#8AH                       ;2FCE   74 8A

2FD0 2D             5156                        ADD   A,R5                         ;2FD0   2D

2FD1 F582           5157                        MOV   DPL,A                        ;2FD1   F5 82

2FD3 740B           5158                        MOV   A,#0BH                       ;2FD3   74 0B

2FD5 3C             5159                        ADDC  A,R4                         ;2FD5   3C

2FD6 F583           5160                        MOV   DPH,A                        ;2FD6   F5 83

2FD8 E4             5161                        CLR   A                            ;2FD8   E4

2FD9 93             5162                        MOVC  A,@A+DPTR                    ;2FD9   93

2FDA FF             5163                        MOV   R7,A                         ;2FDA   FF

2FDB 123209         5164                        LCALL Q3209                        ;2FDB   12 32 09

2FDE 0A             5165     Q2FDE:             INC   R2                           ;2FDE   0A

A51 MACRO ASSEMBLER  __________V0_0                                                       12/04/2016 21:52:57 PAGE    89

2FDF BA7FBE         5166                        CJNE  R2,#7FH,Q2FA0                ;2FDF   BA 7F BE

2FE2 0B             5167                        INC   R3                           ;2FE2   0B

2FE3 BB07A7         5168                        CJNE  R3,#07H,Q2F8D                ;2FE3   BB 07 A7

2FE6 22             5169                        RET                                ;2FE6   22

                    5170     ;==========================================================================

2FE7 C3             5171     Q2FE7:             CLR   C                            ;2FE7   C3

2FE8 7406           5172                        MOV   A,#06H                       ;2FE8   74 06

2FEA 952D           5173                        SUBB  A,2DH                        ;2FEA   95 2D

2FEC FD             5174                        MOV   R5,A                         ;2FEC   FD

2FED 7F0A           5175                        MOV   R7,#0AH                      ;2FED   7F 0A

2FEF 8F34           5176                        MOV   34H,R7                       ;2FEF   8F 34

2FF1 8D35           5177                        MOV   35H,R5                       ;2FF1   8D 35

2FF3 E4             5178                        CLR   A                            ;2FF3   E4

2FF4 753A01         5179                        MOV   3AH,#01H                     ;2FF4   75 3A 01

2FF7 F539           5180                        MOV   39H,A                        ;2FF7   F5 39

2FF9 F538           5181                        MOV   38H,A                        ;2FF9   F5 38

2FFB F537           5182                        MOV   37H,A                        ;2FFB   F5 37

2FFD E535           5183                        MOV   A,35H                        ;2FFD   E5 35

2FFF 7006           5184                        JNZ   Q3007                        ;2FFF   70 06

3001 7F01           5185                        MOV   R7,#01H                      ;3001   7F 01

3003 FE             5186                        MOV   R6,A                         ;3003   FE

3004 FD             5187                        MOV   R5,A                         ;3004   FD

3005 FC             5188                        MOV   R4,A                         ;3005   FC

3006 22             5189                        RET                                ;3006   22

                    5190     ;==========================================================================

3007 E4             5191     Q3007:             CLR   A                            ;3007   E4

3008 F536           5192                        MOV   36H,A                        ;3008   F5 36

300A E536           5193     Q300A:             MOV   A,36H                        ;300A   E5 36

300C C3             5194                        CLR   C                            ;300C   C3

300D 9535           5195                        SUBB  A,35H                        ;300D   95 35

300F 501D           5196                        JNC   Q302E                        ;300F   50 1D

3011 AF34           5197                        MOV   R7,34H                       ;3011   AF 34

3013 E4             5198                        CLR   A                            ;3013   E4

3014 FC             5199                        MOV   R4,A                         ;3014   FC

3015 FD             5200                        MOV   R5,A                         ;3015   FD

3016 FE             5201                        MOV   R6,A                         ;3016   FE

3017 AB3A           5202                        MOV   R3,3AH                       ;3017   AB 3A

3019 AA39           5203                        MOV   R2,39H                       ;3019   AA 39

301B A938           5204                        MOV   R1,38H                       ;301B   A9 38

301D A837           5205                        MOV   R0,37H                       ;301D   A8 37

301F 1228D2         5206                        LCALL Q28D2                        ;301F   12 28 D2

3022 8F3A           5207                        MOV   3AH,R7                       ;3022   8F 3A

3024 8E39           5208                        MOV   39H,R6                       ;3024   8E 39

3026 8D38           5209                        MOV   38H,R5                       ;3026   8D 38

3028 8C37           5210                        MOV   37H,R4                       ;3028   8C 37

302A 0536           5211                        INC   36H                          ;302A   05 36

302C 80DC           5212                        SJMP  Q300A                        ;302C   80 DC

302E AF3A           5213     Q302E:             MOV   R7,3AH                       ;302E   AF 3A

3030 AE39           5214                        MOV   R6,39H                       ;3030   AE 39

3032 AD38           5215                        MOV   R5,38H                       ;3032   AD 38

3034 AC37           5216                        MOV   R4,37H                       ;3034   AC 37

3036 22             5217                        RET                                ;3036   22

                    5218     ;==========================================================================

3037 7FAF           5219     Q3037:             MOV   R7,#0AFH                     ;3037   7F AF

3039 12317D         5220                        LCALL Q317D                        ;3039   12 31 7D

303C 7F2F           5221                        MOV   R7,#2FH                      ;303C   7F 2F

303E 12317D         5222                        LCALL Q317D                        ;303E   12 31 7D

3041 7F24           5223                        MOV   R7,#24H                      ;3041   7F 24

3043 12317D         5224                        LCALL Q317D                        ;3043   12 31 7D

3046 7F81           5225                        MOV   R7,#81H                      ;3046   7F 81

3048 12317D         5226                        LCALL Q317D                        ;3048   12 31 7D

304B 7F29           5227                        MOV   R7,#29H                      ;304B   7F 29

304D 12317D         5228                        LCALL Q317D                        ;304D   12 31 7D

3050 7FA2           5229                        MOV   R7,#0A2H                     ;3050   7F A2

3052 12317D         5230                        LCALL Q317D                        ;3052   12 31 7D

3055 7FC8           5231                        MOV   R7,#0C8H                     ;3055   7F C8

A51 MACRO ASSEMBLER  __________V0_0                                                       12/04/2016 21:52:57 PAGE    90

3057 12317D         5232                        LCALL Q317D                        ;3057   12 31 7D

305A 7FA1           5233                        MOV   R7,#0A1H                     ;305A   7F A1

305C 12317D         5234                        LCALL Q317D                        ;305C   12 31 7D

305F 7FA4           5235                        MOV   R7,#0A4H                     ;305F   7F A4

3061 12317D         5236                        LCALL Q317D                        ;3061   12 31 7D

3064 7FA6           5237                        MOV   R7,#0A6H                     ;3064   7F A6

3066 12317D         5238                        LCALL Q317D                        ;3066   12 31 7D

3069 7FAC           5239                        MOV   R7,#0ACH                     ;3069   7F AC

306B 12317D         5240                        LCALL Q317D                        ;306B   12 31 7D

306E 7F40           5241                        MOV   R7,#40H                      ;306E   7F 40

3070 12317D         5242                        LCALL Q317D                        ;3070   12 31 7D

3073 7FB0           5243                        MOV   R7,#0B0H                     ;3073   7F B0

3075 12317D         5244                        LCALL Q317D                        ;3075   12 31 7D

3078 7F10           5245                        MOV   R7,#10H                      ;3078   7F 10

307A 12317D         5246                        LCALL Q317D                        ;307A   12 31 7D

307D E4             5247                        CLR   A                            ;307D   E4

307E FF             5248                        MOV   R7,A                         ;307E   FF

307F 12317D         5249                        LCALL Q317D                        ;307F   12 31 7D

3082 0231E1         5250                        LJMP  Q31E1                        ;3082   02 31 E1

                    5251     ;==========================================================================

3085 EF             5252     Q3085:             MOV   A,R7                         ;3085   EF

3086 24B0           5253                        ADD   A,#0B0H                      ;3086   24 B0

3088 FF             5254                        MOV   R7,A                         ;3088   FF

3089 12317D         5255                        LCALL Q317D                        ;3089   12 31 7D

308C ED             5256                        MOV   A,R5                         ;308C   ED

308D 2404           5257                        ADD   A,#04H                       ;308D   24 04

308F FF             5258                        MOV   R7,A                         ;308F   FF

3090 E4             5259                        CLR   A                            ;3090   E4

3091 33             5260                        RLC   A                            ;3091   33

3092 FE             5261                        MOV   R6,A                         ;3092   FE

3093 EF             5262                        MOV   A,R7                         ;3093   EF

3094 7804           5263                        MOV   R0,#04H                      ;3094   78 04

3096 CE             5264     Q3096:             XCH   A,R6                         ;3096   CE

3097 A2E7           5265                        MOV   C,ACC.7                      ;3097   A2 E7

3099 13             5266                        RRC   A                            ;3099   13

309A CE             5267                        XCH   A,R6                         ;309A   CE

309B 13             5268                        RRC   A                            ;309B   13

309C D8F8           5269                        DJNZ  R0,Q3096                     ;309C   D8 F8

309E 123171         5270                        LCALL Q3171                        ;309E   12 31 71

30A1 E4             5271                        CLR   A                            ;30A1   E4

30A2 FD             5272                        MOV   R5,A                         ;30A2   FD

30A3 75F005         5273     Q30A3:             MOV   B,#05H                       ;30A3   75 F0 05

30A6 EB             5274                        MOV   A,R3                         ;30A6   EB

30A7 A4             5275                        MUL   AB                           ;30A7   A4

30A8 2D             5276                        ADD   A,R5                         ;30A8   2D

30A9 F582           5277                        MOV   DPL,A                        ;30A9   F5 82

30AB E4             5278                        CLR   A                            ;30AB   E4

30AC 35F0           5279                        ADDC  A,B                          ;30AC   35 F0

30AE F583           5280                        MOV   DPH,A                        ;30AE   F5 83

30B0 E582           5281                        MOV   A,DPL                        ;30B0   E5 82

30B2 2419           5282                        ADD   A,#19H                       ;30B2   24 19

30B4 F582           5283                        MOV   DPL,A                        ;30B4   F5 82

30B6 E583           5284                        MOV   A,DPH                        ;30B6   E5 83

30B8 3402           5285                        ADDC  A,#02H                       ;30B8   34 02

30BA F583           5286                        MOV   DPH,A                        ;30BA   F5 83

30BC E4             5287                        CLR   A                            ;30BC   E4

30BD 93             5288                        MOVC  A,@A+DPTR                    ;30BD   93

30BE 25E0           5289                        ADD   A,ACC                        ;30BE   25 E0

30C0 FF             5290                        MOV   R7,A                         ;30C0   FF

30C1 123209         5291                        LCALL Q3209                        ;30C1   12 32 09

30C4 0D             5292                        INC   R5                           ;30C4   0D

30C5 BD05DB         5293                        CJNE  R5,#05H,Q30A3                ;30C5   BD 05 DB

30C8 22             5294                        RET                                ;30C8   22

                    5295     ;==========================================================================

30C9 8F34           5296     Q30C9:             MOV   34H,R7                       ;30C9   8F 34

30CB 8D35           5297                        MOV   35H,R5                       ;30CB   8D 35

A51 MACRO ASSEMBLER  __________V0_0                                                       12/04/2016 21:52:57 PAGE    91

30CD 8B36           5298                        MOV   36H,R3                       ;30CD   8B 36

30CF 8A37           5299                        MOV   37H,R2                       ;30CF   8A 37

30D1 8938           5300                        MOV   38H,R1                       ;30D1   89 38

30D3 853539         5301                        MOV   39H,35H                      ;30D3   85 35 39

30D6 E4             5302                        CLR   A                            ;30D6   E4

30D7 FC             5303                        MOV   R4,A                         ;30D7   FC

30D8 C3             5304     Q30D8:             CLR   C                            ;30D8   C3

30D9 747F           5305                        MOV   A,#7FH                       ;30D9   74 7F

30DB 9539           5306                        SUBB  A,39H                        ;30DB   95 39

30DD 75F005         5307                        MOV   B,#05H                       ;30DD   75 F0 05

30E0 84             5308                        DIV   AB                           ;30E0   84

30E1 FF             5309                        MOV   R7,A                         ;30E1   FF

30E2 EC             5310                        MOV   A,R4                         ;30E2   EC

30E3 C3             5311                        CLR   C                            ;30E3   C3

30E4 9F             5312                        SUBB  A,R7                         ;30E4   9F

30E5 5021           5313                        JNC   Q3108                        ;30E5   50 21

30E7 AB36           5314                        MOV   R3,36H                       ;30E7   AB 36

30E9 AA37           5315                        MOV   R2,37H                       ;30E9   AA 37

30EB A938           5316                        MOV   R1,38H                       ;30EB   A9 38

30ED 8C82           5317                        MOV   DPL,R4                       ;30ED   8C 82

30EF 758300         5318                        MOV   DPH,#00H                     ;30EF   75 83 00

30F2 12283B         5319                        LCALL Q283B                        ;30F2   12 28 3B

30F5 FB             5320                        MOV   R3,A                         ;30F5   FB

30F6 6010           5321                        JZ    Q3108                        ;30F6   60 10

30F8 AD35           5322                        MOV   R5,35H                       ;30F8   AD 35

30FA AF34           5323                        MOV   R7,34H                       ;30FA   AF 34

30FC 123085         5324                        LCALL Q3085                        ;30FC   12 30 85

30FF 7405           5325                        MOV   A,#05H                       ;30FF   74 05

3101 2535           5326                        ADD   A,35H                        ;3101   25 35

3103 F535           5327                        MOV   35H,A                        ;3103   F5 35

3105 0C             5328                        INC   R4                           ;3105   0C

3106 80D0           5329                        SJMP  Q30D8                        ;3106   80 D0

3108 22             5330     Q3108:             RET                                ;3108   22

                    5331     ;==========================================================================

3109 8E2C           5332     Q3109:             MOV   2CH,R6                       ;3109   8E 2C

310B 8F2D           5333                        MOV   2DH,R7                       ;310B   8F 2D

310D 8D2E           5334                        MOV   2EH,R5                       ;310D   8D 2E

310F 8B2F           5335                        MOV   2FH,R3                       ;310F   8B 2F

3111 8A30           5336                        MOV   30H,R2                       ;3111   8A 30

3113 8931           5337                        MOV   31H,R1                       ;3113   89 31

3115 12324E         5338                        LCALL Q324E                        ;3115   12 32 4E

3118 E4             5339                        CLR   A                            ;3118   E4

3119 FC             5340                        MOV   R4,A                         ;3119   FC

311A EC             5341     Q311A:             MOV   A,R4                         ;311A   EC

311B C3             5342                        CLR   C                            ;311B   C3

311C 952E           5343                        SUBB  A,2EH                        ;311C   95 2E

311E 501F           5344                        JNC   Q313F                        ;311E   50 1F

3120 EC             5345                        MOV   A,R4                         ;3120   EC

3121 7E00           5346                        MOV   R6,#00H                      ;3121   7E 00

3123 252D           5347                        ADD   A,2DH                        ;3123   25 2D

3125 FF             5348                        MOV   R7,A                         ;3125   FF

3126 EE             5349                        MOV   A,R6                         ;3126   EE

3127 352C           5350                        ADDC  A,2CH                        ;3127   35 2C

3129 FE             5351                        MOV   R6,A                         ;3129   FE

312A AB2F           5352                        MOV   R3,2FH                       ;312A   AB 2F

312C AA30           5353                        MOV   R2,30H                       ;312C   AA 30

312E A931           5354                        MOV   R1,31H                       ;312E   A9 31

3130 8C82           5355                        MOV   DPL,R4                       ;3130   8C 82

3132 758300         5356                        MOV   DPH,#00H                     ;3132   75 83 00

3135 12283B         5357                        LCALL Q283B                        ;3135   12 28 3B

3138 FD             5358                        MOV   R5,A                         ;3138   FD

3139 123224         5359                        LCALL Q3224                        ;3139   12 32 24

313C 0C             5360                        INC   R4                           ;313C   0C

313D 80DB           5361                        SJMP  Q311A                        ;313D   80 DB

313F 22             5362     Q313F:             RET                                ;313F   22

                    5363     ;==========================================================================

A51 MACRO ASSEMBLER  __________V0_0                                                       12/04/2016 21:52:57 PAGE    92

3140 8E2C           5364     Q3140:             MOV   2CH,R6                       ;3140   8E 2C

3142 8F2D           5365                        MOV   2DH,R7                       ;3142   8F 2D

3144 8B2E           5366                        MOV   2EH,R3                       ;3144   8B 2E

3146 8A2F           5367                        MOV   2FH,R2                       ;3146   8A 2F

3148 8930           5368                        MOV   30H,R1                       ;3148   89 30

314A E4             5369                        CLR   A                            ;314A   E4

314B FC             5370                        MOV   R4,A                         ;314B   FC

314C EC             5371     Q314C:             MOV   A,R4                         ;314C   EC

314D C3             5372                        CLR   C                            ;314D   C3

314E 9D             5373                        SUBB  A,R5                         ;314E   9D

314F 501F           5374                        JNC   Q3170                        ;314F   50 1F

3151 EC             5375                        MOV   A,R4                         ;3151   EC

3152 7E00           5376                        MOV   R6,#00H                      ;3152   7E 00

3154 252D           5377                        ADD   A,2DH                        ;3154   25 2D

3156 FF             5378                        MOV   R7,A                         ;3156   FF

3157 EE             5379                        MOV   A,R6                         ;3157   EE

3158 352C           5380                        ADDC  A,2CH                        ;3158   35 2C

315A FE             5381                        MOV   R6,A                         ;315A   FE

315B 12001E         5382                        LCALL Q001E                        ;315B   12 00 1E

315E AB2E           5383                        MOV   R3,2EH                       ;315E   AB 2E

3160 AA2F           5384                        MOV   R2,2FH                       ;3160   AA 2F

3162 A930           5385                        MOV   R1,30H                       ;3162   A9 30

3164 8C82           5386                        MOV   DPL,R4                       ;3164   8C 82

3166 758300         5387                        MOV   DPH,#00H                     ;3166   75 83 00

3169 EF             5388                        MOV   A,R7                         ;3169   EF

316A 122868         5389                        LCALL Q2868                        ;316A   12 28 68

316D 0C             5390                        INC   R4                           ;316D   0C

316E 80DC           5391                        SJMP  Q314C                        ;316E   80 DC

3170 22             5392     Q3170:             RET                                ;3170   22

                    5393     ;==========================================================================

3171 2410           5394     Q3171:             ADD   A,#10H                       ;3171   24 10

3173 FF             5395                        MOV   R7,A                         ;3173   FF

3174 12317D         5396                        LCALL Q317D                        ;3174   12 31 7D

3177 ED             5397                        MOV   A,R5                         ;3177   ED

3178 2404           5398                        ADD   A,#04H                       ;3178   24 04

317A 540F           5399                        ANL   A,#0FH                       ;317A   54 0F

317C FF             5400                        MOV   R7,A                         ;317C   FF

317D C283           5401     Q317D:             CLR   P0.3                         ;317D   C2 83

317F C280           5402                        CLR   P0.0                         ;317F   C2 80

3181 C281           5403                        CLR   P0.1                         ;3181   C2 81

3183 E4             5404                        CLR   A                            ;3183   E4

3184 FE             5405                        MOV   R6,A                         ;3184   FE

3185 C280           5406     Q3185:             CLR   P0.0                         ;3185   C2 80

3187 EF             5407                        MOV   A,R7                         ;3187   EF

3188 33             5408                        RLC   A                            ;3188   33

3189 9282           5409                        MOV   P0.2,C                       ;3189   92 82

318B EF             5410                        MOV   A,R7                         ;318B   EF

318C 25E0           5411                        ADD   A,ACC                        ;318C   25 E0

318E FF             5412                        MOV   R7,A                         ;318E   FF

318F D280           5413                        SETB  P0.0                         ;318F   D2 80

3191 0E             5414                        INC   R6                           ;3191   0E

3192 BE08F0         5415                        CJNE  R6,#08H,Q3185                ;3192   BE 08 F0

3195 D281           5416                        SETB  P0.1                         ;3195   D2 81

3197 22             5417                        RET                                ;3197   22

                    5418     ;==========================================================================

3198 758ED0         5419     Q3198:             MOV   8EH,#0D0H                    ;3198   75 8E D0

319B 759C06         5420                        MOV   9CH,#06H                     ;319B   75 9C 06

319E 758F04         5421                        MOV   8FH,#04H                     ;319E   75 8F 04

31A1 758951         5422                        MOV   TMOD,#51H                    ;31A1   75 89 51

31A4 E524           5423                        MOV   A,24H                        ;31A4   E5 24

31A6 F58C           5424                        MOV   TH0,A                        ;31A6   F5 8C

31A8 E525           5425                        MOV   A,25H                        ;31A8   E5 25

31AA F58A           5426                        MOV   TL0,A                        ;31AA   F5 8A

31AC 758D3C         5427                        MOV   TH1,#3CH                     ;31AC   75 8D 3C

31AF 758BB0         5428                        MOV   TL1,#0B0H                    ;31AF   75 8B B0

31B2 C28C           5429                        CLR   TR0                          ;31B2   C2 8C

A51 MACRO ASSEMBLER  __________V0_0                                                       12/04/2016 21:52:57 PAGE    93

31B4 C2A9           5430                        CLR   ET0                          ;31B4   C2 A9

31B6 D28E           5431                        SETB  TR1                          ;31B6   D2 8E

31B8 D2AB           5432                        SETB  ET1                          ;31B8   D2 AB

31BA D2AF           5433                        SETB  EA                           ;31BA   D2 AF

31BC 22             5434                        RET                                ;31BC   22

                    5435     ;==========================================================================

31BD 53A2BF         5436     Q31BD:             ANL   0A2H,#0BFH                   ;31BD   53 A2 BF

31C0 E4             5437                        CLR   A                            ;31C0   E4

31C1 F5D9           5438                        MOV   0D9H,A                       ;31C1   F5 D9

31C3 75DA49         5439                        MOV   0DAH,#49H                    ;31C3   75 DA 49

31C6 F5F9           5440                        MOV   0F9H,A                       ;31C6   F5 F9

31C8 F5E9           5441                        MOV   0E9H,A                       ;31C8   F5 E9

31CA 851EEA         5442                        MOV   0EAH,1EH                     ;31CA   85 1E EA

31CD E51D           5443                        MOV   A,1DH                        ;31CD   E5 1D

31CF F5FA           5444                        MOV   0FAH,A                       ;31CF   F5 FA

31D1 8520EB         5445                        MOV   0EBH,20H                     ;31D1   85 20 EB

31D4 E51F           5446                        MOV   A,1FH                        ;31D4   E5 1F

31D6 F5FB           5447                        MOV   0FBH,A                       ;31D6   F5 FB

31D8 C2DF           5448                        CLR   0DFH                          ;31D8   C2 DF

31DA C2D8           5449                        CLR   0D8H                          ;31DA   C2 D8

31DC C2D9           5450                        CLR   0D9H                          ;31DC   C2 D9

31DE D2DE           5451                        SETB  0DEH                          ;31DE   D2 DE

31E0 22             5452                        RET                                ;31E0   22

                    5453     ;==========================================================================

31E1 E4             5454     Q31E1:             CLR   A                            ;31E1   E4

31E2 FD             5455                        MOV   R5,A                         ;31E2   FD

31E3 ED             5456     Q31E3:             MOV   A,R5                         ;31E3   ED

31E4 24B0           5457                        ADD   A,#0B0H                      ;31E4   24 B0

31E6 FF             5458                        MOV   R7,A                         ;31E6   FF

31E7 12317D         5459                        LCALL Q317D                        ;31E7   12 31 7D

31EA 7F01           5460                        MOV   R7,#01H                      ;31EA   7F 01

31EC 12317D         5461                        LCALL Q317D                        ;31EC   12 31 7D

31EF 7F10           5462                        MOV   R7,#10H                      ;31EF   7F 10

31F1 12317D         5463                        LCALL Q317D                        ;31F1   12 31 7D

31F4 E4             5464                        CLR   A                            ;31F4   E4

31F5 FC             5465                        MOV   R4,A                         ;31F5   FC

31F6 E4             5466     Q31F6:             CLR   A                            ;31F6   E4

31F7 FF             5467                        MOV   R7,A                         ;31F7   FF

31F8 123209         5468                        LCALL Q3209                        ;31F8   12 32 09

31FB 0C             5469                        INC   R4                           ;31FB   0C

31FC BC86F7         5470                        CJNE  R4,#86H,Q31F6                ;31FC   BC 86 F7

31FF 0D             5471                        INC   R5                           ;31FF   0D

3200 BD08E0         5472                        CJNE  R5,#08H,Q31E3                ;3200   BD 08 E0

3203 22             5473                        RET                                ;3203   22

                    5474     ;==========================================================================

3204 FF             5475     Q3204:             MOV   R7,A                         ;3204   FF

3205 ED             5476                        MOV   A,R5                         ;3205   ED

3206 93             5477                        MOVC  A,@A+DPTR                    ;3206   93

3207 4F             5478                        ORL   A,R7                         ;3207   4F

3208 FF             5479                        MOV   R7,A                         ;3208   FF

3209 D283           5480     Q3209:             SETB  P0.3                         ;3209   D2 83

320B C280           5481                        CLR   P0.0                         ;320B   C2 80

320D C281           5482                        CLR   P0.1                         ;320D   C2 81

320F E4             5483                        CLR   A                            ;320F   E4

3210 FE             5484                        MOV   R6,A                         ;3210   FE

3211 C280           5485     Q3211:             CLR   P0.0                         ;3211   C2 80

3213 EF             5486                        MOV   A,R7                         ;3213   EF

3214 33             5487                        RLC   A                            ;3214   33

3215 9282           5488                        MOV   P0.2,C                       ;3215   92 82

3217 EF             5489                        MOV   A,R7                         ;3217   EF

3218 25E0           5490                        ADD   A,ACC                        ;3218   25 E0

321A FF             5491                        MOV   R7,A                         ;321A   FF

321B D280           5492                        SETB  P0.0                         ;321B   D2 80

321D 0E             5493                        INC   R6                           ;321D   0E

321E BE08F0         5494                        CJNE  R6,#08H,Q3211                ;321E   BE 08 F0

3221 D281           5495                        SETB  P0.1                         ;3221   D2 81

A51 MACRO ASSEMBLER  __________V0_0                                                       12/04/2016 21:52:57 PAGE    94

3223 22             5496                        RET                                ;3223   22

                    5497     ;==========================================================================

3224 75C780         5498     Q3224:             MOV   0C7H,#80H                    ;3224   75 C7 80

3227 75C502         5499                        MOV   0C5H,#02H                    ;3227   75 C5 02

322A 8FC4           5500                        MOV   0C4H,R7                      ;322A   8F C4

322C 8EC3           5501                        MOV   0C3H,R6                      ;322C   8E C3

322E 8DC2           5502                        MOV   0C2H,R5                      ;322E   8D C2

3230 75C65A         5503                        MOV   0C6H,#5AH                    ;3230   75 C6 5A

3233 75C6A5         5504                        MOV   0C6H,#0A5H                   ;3233   75 C6 A5

3236 00             5505                        NOP                                ;3236   00

3237 02000E         5506                        LJMP  Q000E                        ;3237   02 00 0E

                    5507     ;==========================================================================

323A EF             5508     Q323A:             MOV   A,R7                         ;323A   EF

323B 44E8           5509                        ORL   A,#0E8H                      ;323B   44 E8

323D F5BC           5510                        MOV   0BCH,A                       ;323D   F5 BC

323F 00             5511                        NOP                                ;323F   00

3240 00             5512                        NOP                                ;3240   00

3241 00             5513                        NOP                                ;3241   00

3242 00             5514                        NOP                                ;3242   00

3243 E5BC           5515     Q3243:             MOV   A,0BCH                       ;3243   E5 BC

3245 30E4FB         5516                        JNB   ACC.4,Q3243                  ;3245   30 E4 FB

3248 53BCEF         5517                        ANL   0BCH,#0EFH                   ;3248   53 BC EF

324B AFBD           5518                        MOV   R7,0BDH                      ;324B   AF BD

324D 22             5519                        RET                                ;324D   22

                    5520     ;==========================================================================

324E 75C780         5521     Q324E:             MOV   0C7H,#80H                    ;324E   75 C7 80

3251 75C503         5522                        MOV   0C5H,#03H                    ;3251   75 C5 03

3254 8FC4           5523                        MOV   0C4H,R7                      ;3254   8F C4

3256 8EC3           5524                        MOV   0C3H,R6                      ;3256   8E C3

3258 75C65A         5525                        MOV   0C6H,#5AH                    ;3258   75 C6 5A

325B 75C6A5         5526                        MOV   0C6H,#0A5H                   ;325B   75 C6 A5

325E 00             5527                        NOP                                ;325E   00

325F 02000E         5528                        LJMP  Q000E                        ;325F   02 00 0E

                    5529     ;==========================================================================

3262 C0E0758D       5530     Q3262:           DB 0C0H,0E0H, 75H, 8DH, 3CH, 75H, 8BH,0B0H     ;..u.<u..

3266 3C758BB0                
326A 0518E518       5531     Q326A:           DB  05H, 18H,0E5H, 18H, 70H, 02H, 05H, 17H     ;....p...

326E 70020517                
3272 D0E032         5532     Q3272:           DB 0D0H,0E0H, 32H      ;..2

                    5533     ;==========================================================================

3275 E4             5534     Q3275:             CLR   A                            ;3275   E4

3276 F5A2           5535                        MOV   0A2H,A                       ;3276   F5 A2

3278 759D02         5536                        MOV   9DH,#02H                     ;3278   75 9D 02

327B F5BD           5537                        MOV   0BDH,A                       ;327B   F5 BD

327D 75BC80         5538                        MOV   0BCH,#80H                    ;327D   75 BC 80

3280 22             5539                        RET                                ;3280   22

                    5540     ;==========================================================================

3281 787F           5541     Q3281:             MOV   R0,#7FH                      ;3281   78 7F

3283 E4             5542                        CLR   A                            ;3283   E4

3284 F6             5543     Q3284:             MOV   @R0,A                        ;3284   F6

3285 D8FD           5544                        DJNZ  R0,Q3284                     ;3285   D8 FD

3287 7581B9         5545                        MOV   SP,#0B9H                     ;3287   75 81 B9

328A 02191B         5546                        LJMP  Q191B                        ;328A   02 19 1B

                    5547     ;==========================================================================

                    5548                                        END

A51 MACRO ASSEMBLER  __________V0_0                                                       12/04/2016 21:52:57 PAGE    95

SYMBOL TABLE LISTING
------ ----- -------


N A M E             T Y P E  V A L U E   ATTRIBUTES

ACC. . . . . . . .  D ADDR   00E0H   A   
B. . . . . . . . .  D ADDR   00F0H   A   
CY . . . . . . . .  B ADDR   00D0H.7 A   
DPH. . . . . . . .  D ADDR   0083H   A   
DPL. . . . . . . .  D ADDR   0082H   A   
EA . . . . . . . .  B ADDR   00A8H.7 A   
ET0. . . . . . . .  B ADDR   00A8H.1 A   
ET1. . . . . . . .  B ADDR   00A8H.3 A   
F0 . . . . . . . .  B ADDR   00D0H.5 A   
OV . . . . . . . .  B ADDR   00D0H.2 A   
P0 . . . . . . . .  D ADDR   0080H   A   
P1 . . . . . . . .  D ADDR   0090H   A   
P3 . . . . . . . .  D ADDR   00B0H   A   
Q0000. . . . . . .  C ADDR   0000H   A   
Q0003. . . . . . .  C ADDR   0003H   A   
Q000B. . . . . . .  C ADDR   000BH   A   
Q000E. . . . . . .  C ADDR   000EH   A   
Q001B. . . . . . .  C ADDR   001BH   A   
Q001E. . . . . . .  C ADDR   001EH   A   
Q0035. . . . . . .  C ADDR   0035H   A   
Q003D. . . . . . .  C ADDR   003DH   A   
Q0045. . . . . . .  C ADDR   0045H   A   
Q004D. . . . . . .  C ADDR   004DH   A   
Q0055. . . . . . .  C ADDR   0055H   A   
Q005D. . . . . . .  C ADDR   005DH   A   
Q0065. . . . . . .  C ADDR   0065H   A   
Q006D. . . . . . .  C ADDR   006DH   A   
Q0075. . . . . . .  C ADDR   0075H   A   
Q007D. . . . . . .  C ADDR   007DH   A   
Q0085. . . . . . .  C ADDR   0085H   A   
Q008D. . . . . . .  C ADDR   008DH   A   
Q0095. . . . . . .  C ADDR   0095H   A   
Q009D. . . . . . .  C ADDR   009DH   A   
Q00A5. . . . . . .  C ADDR   00A5H   A   
Q00AD. . . . . . .  C ADDR   00ADH   A   
Q00B5. . . . . . .  C ADDR   00B5H   A   
Q00BD. . . . . . .  C ADDR   00BDH   A   
Q00C5. . . . . . .  C ADDR   00C5H   A   
Q00CD. . . . . . .  C ADDR   00CDH   A   
Q00D5. . . . . . .  C ADDR   00D5H   A   
Q00DD. . . . . . .  C ADDR   00DDH   A   
Q00E5. . . . . . .  C ADDR   00E5H   A   
Q00ED. . . . . . .  C ADDR   00EDH   A   
Q00F5. . . . . . .  C ADDR   00F5H   A   
Q00FD. . . . . . .  C ADDR   00FDH   A   
Q0105. . . . . . .  C ADDR   0105H   A   
Q010D. . . . . . .  C ADDR   010DH   A   
Q0115. . . . . . .  C ADDR   0115H   A   
Q011D. . . . . . .  C ADDR   011DH   A   
Q0125. . . . . . .  C ADDR   0125H   A   
Q012D. . . . . . .  C ADDR   012DH   A   
Q0135. . . . . . .  C ADDR   0135H   A   
Q013D. . . . . . .  C ADDR   013DH   A   
Q0145. . . . . . .  C ADDR   0145H   A   
Q014D. . . . . . .  C ADDR   014DH   A   
Q0155. . . . . . .  C ADDR   0155H   A   
Q015D. . . . . . .  C ADDR   015DH   A   
Q0165. . . . . . .  C ADDR   0165H   A   
Q016D. . . . . . .  C ADDR   016DH   A   
Q0175. . . . . . .  C ADDR   0175H   A   
A51 MACRO ASSEMBLER  __________V0_0                                                       12/04/2016 21:52:57 PAGE    96

Q017D. . . . . . .  C ADDR   017DH   A   
Q0185. . . . . . .  C ADDR   0185H   A   
Q018D. . . . . . .  C ADDR   018DH   A   
Q0195. . . . . . .  C ADDR   0195H   A   
Q019D. . . . . . .  C ADDR   019DH   A   
Q01A5. . . . . . .  C ADDR   01A5H   A   
Q01AD. . . . . . .  C ADDR   01ADH   A   
Q01B5. . . . . . .  C ADDR   01B5H   A   
Q01BD. . . . . . .  C ADDR   01BDH   A   
Q01C5. . . . . . .  C ADDR   01C5H   A   
Q01CD. . . . . . .  C ADDR   01CDH   A   
Q01D5. . . . . . .  C ADDR   01D5H   A   
Q01DD. . . . . . .  C ADDR   01DDH   A   
Q01E5. . . . . . .  C ADDR   01E5H   A   
Q01ED. . . . . . .  C ADDR   01EDH   A   
Q01F5. . . . . . .  C ADDR   01F5H   A   
Q01FD. . . . . . .  C ADDR   01FDH   A   
Q0205. . . . . . .  C ADDR   0205H   A   
Q020D. . . . . . .  C ADDR   020DH   A   
Q0215. . . . . . .  C ADDR   0215H   A   
Q021D. . . . . . .  C ADDR   021DH   A   
Q0225. . . . . . .  C ADDR   0225H   A   
Q022D. . . . . . .  C ADDR   022DH   A   
Q0235. . . . . . .  C ADDR   0235H   A   
Q023D. . . . . . .  C ADDR   023DH   A   
Q0245. . . . . . .  C ADDR   0245H   A   
Q024D. . . . . . .  C ADDR   024DH   A   
Q0255. . . . . . .  C ADDR   0255H   A   
Q025D. . . . . . .  C ADDR   025DH   A   
Q0265. . . . . . .  C ADDR   0265H   A   
Q026D. . . . . . .  C ADDR   026DH   A   
Q0275. . . . . . .  C ADDR   0275H   A   
Q027D. . . . . . .  C ADDR   027DH   A   
Q0285. . . . . . .  C ADDR   0285H   A   
Q028D. . . . . . .  C ADDR   028DH   A   
Q0295. . . . . . .  C ADDR   0295H   A   
Q029D. . . . . . .  C ADDR   029DH   A   
Q02A5. . . . . . .  C ADDR   02A5H   A   
Q02AD. . . . . . .  C ADDR   02ADH   A   
Q02B5. . . . . . .  C ADDR   02B5H   A   
Q02BD. . . . . . .  C ADDR   02BDH   A   
Q02C5. . . . . . .  C ADDR   02C5H   A   
Q02CD. . . . . . .  C ADDR   02CDH   A   
Q02D5. . . . . . .  C ADDR   02D5H   A   
Q02DD. . . . . . .  C ADDR   02DDH   A   
Q02E5. . . . . . .  C ADDR   02E5H   A   
Q02ED. . . . . . .  C ADDR   02EDH   A   
Q02F5. . . . . . .  C ADDR   02F5H   A   
Q02FD. . . . . . .  C ADDR   02FDH   A   
Q0305. . . . . . .  C ADDR   0305H   A   
Q030D. . . . . . .  C ADDR   030DH   A   
Q0315. . . . . . .  C ADDR   0315H   A   
Q031D. . . . . . .  C ADDR   031DH   A   
Q0325. . . . . . .  C ADDR   0325H   A   
Q032D. . . . . . .  C ADDR   032DH   A   
Q0335. . . . . . .  C ADDR   0335H   A   
Q033D. . . . . . .  C ADDR   033DH   A   
Q0345. . . . . . .  C ADDR   0345H   A   
Q034D. . . . . . .  C ADDR   034DH   A   
Q0355. . . . . . .  C ADDR   0355H   A   
Q035D. . . . . . .  C ADDR   035DH   A   
Q0365. . . . . . .  C ADDR   0365H   A   
Q036D. . . . . . .  C ADDR   036DH   A   
Q0375. . . . . . .  C ADDR   0375H   A   
Q037D. . . . . . .  C ADDR   037DH   A   
Q0385. . . . . . .  C ADDR   0385H   A   
A51 MACRO ASSEMBLER  __________V0_0                                                       12/04/2016 21:52:57 PAGE    97

Q038D. . . . . . .  C ADDR   038DH   A   
Q0395. . . . . . .  C ADDR   0395H   A   
Q039D. . . . . . .  C ADDR   039DH   A   
Q03A5. . . . . . .  C ADDR   03A5H   A   
Q03AD. . . . . . .  C ADDR   03ADH   A   
Q03B5. . . . . . .  C ADDR   03B5H   A   
Q03BD. . . . . . .  C ADDR   03BDH   A   
Q03C5. . . . . . .  C ADDR   03C5H   A   
Q03CD. . . . . . .  C ADDR   03CDH   A   
Q03D5. . . . . . .  C ADDR   03D5H   A   
Q03DD. . . . . . .  C ADDR   03DDH   A   
Q03E5. . . . . . .  C ADDR   03E5H   A   
Q03ED. . . . . . .  C ADDR   03EDH   A   
Q03F5. . . . . . .  C ADDR   03F5H   A   
Q03FD. . . . . . .  C ADDR   03FDH   A   
Q0405. . . . . . .  C ADDR   0405H   A   
Q040D. . . . . . .  C ADDR   040DH   A   
Q0415. . . . . . .  C ADDR   0415H   A   
Q041D. . . . . . .  C ADDR   041DH   A   
Q0425. . . . . . .  C ADDR   0425H   A   
Q042D. . . . . . .  C ADDR   042DH   A   
Q0435. . . . . . .  C ADDR   0435H   A   
Q043D. . . . . . .  C ADDR   043DH   A   
Q0445. . . . . . .  C ADDR   0445H   A   
Q044D. . . . . . .  C ADDR   044DH   A   
Q0455. . . . . . .  C ADDR   0455H   A   
Q045D. . . . . . .  C ADDR   045DH   A   
Q0465. . . . . . .  C ADDR   0465H   A   
Q046D. . . . . . .  C ADDR   046DH   A   
Q0475. . . . . . .  C ADDR   0475H   A   
Q047D. . . . . . .  C ADDR   047DH   A   
Q0485. . . . . . .  C ADDR   0485H   A   
Q048D. . . . . . .  C ADDR   048DH   A   
Q0495. . . . . . .  C ADDR   0495H   A   
Q049D. . . . . . .  C ADDR   049DH   A   
Q04A5. . . . . . .  C ADDR   04A5H   A   
Q04AD. . . . . . .  C ADDR   04ADH   A   
Q04B5. . . . . . .  C ADDR   04B5H   A   
Q04BD. . . . . . .  C ADDR   04BDH   A   
Q04C5. . . . . . .  C ADDR   04C5H   A   
Q04CD. . . . . . .  C ADDR   04CDH   A   
Q04D5. . . . . . .  C ADDR   04D5H   A   
Q04DD. . . . . . .  C ADDR   04DDH   A   
Q04E5. . . . . . .  C ADDR   04E5H   A   
Q04ED. . . . . . .  C ADDR   04EDH   A   
Q04F5. . . . . . .  C ADDR   04F5H   A   
Q04FD. . . . . . .  C ADDR   04FDH   A   
Q0505. . . . . . .  C ADDR   0505H   A   
Q050D. . . . . . .  C ADDR   050DH   A   
Q0515. . . . . . .  C ADDR   0515H   A   
Q051D. . . . . . .  C ADDR   051DH   A   
Q0525. . . . . . .  C ADDR   0525H   A   
Q052D. . . . . . .  C ADDR   052DH   A   
Q0535. . . . . . .  C ADDR   0535H   A   
Q053D. . . . . . .  C ADDR   053DH   A   
Q0545. . . . . . .  C ADDR   0545H   A   
Q054D. . . . . . .  C ADDR   054DH   A   
Q0555. . . . . . .  C ADDR   0555H   A   
Q055D. . . . . . .  C ADDR   055DH   A   
Q0565. . . . . . .  C ADDR   0565H   A   
Q056D. . . . . . .  C ADDR   056DH   A   
Q0575. . . . . . .  C ADDR   0575H   A   
Q057D. . . . . . .  C ADDR   057DH   A   
Q0585. . . . . . .  C ADDR   0585H   A   
Q058D. . . . . . .  C ADDR   058DH   A   
Q0595. . . . . . .  C ADDR   0595H   A   
A51 MACRO ASSEMBLER  __________V0_0                                                       12/04/2016 21:52:57 PAGE    98

Q059D. . . . . . .  C ADDR   059DH   A   
Q05A5. . . . . . .  C ADDR   05A5H   A   
Q05AD. . . . . . .  C ADDR   05ADH   A   
Q05B5. . . . . . .  C ADDR   05B5H   A   
Q05BD. . . . . . .  C ADDR   05BDH   A   
Q05C5. . . . . . .  C ADDR   05C5H   A   
Q05CD. . . . . . .  C ADDR   05CDH   A   
Q05D5. . . . . . .  C ADDR   05D5H   A   
Q05DD. . . . . . .  C ADDR   05DDH   A   
Q05E5. . . . . . .  C ADDR   05E5H   A   
Q05ED. . . . . . .  C ADDR   05EDH   A   
Q05F5. . . . . . .  C ADDR   05F5H   A   
Q05FD. . . . . . .  C ADDR   05FDH   A   
Q0605. . . . . . .  C ADDR   0605H   A   
Q060D. . . . . . .  C ADDR   060DH   A   
Q0615. . . . . . .  C ADDR   0615H   A   
Q061D. . . . . . .  C ADDR   061DH   A   
Q0625. . . . . . .  C ADDR   0625H   A   
Q062D. . . . . . .  C ADDR   062DH   A   
Q0635. . . . . . .  C ADDR   0635H   A   
Q063D. . . . . . .  C ADDR   063DH   A   
Q0645. . . . . . .  C ADDR   0645H   A   
Q064D. . . . . . .  C ADDR   064DH   A   
Q0655. . . . . . .  C ADDR   0655H   A   
Q065D. . . . . . .  C ADDR   065DH   A   
Q0665. . . . . . .  C ADDR   0665H   A   
Q066D. . . . . . .  C ADDR   066DH   A   
Q0675. . . . . . .  C ADDR   0675H   A   
Q067D. . . . . . .  C ADDR   067DH   A   
Q0685. . . . . . .  C ADDR   0685H   A   
Q068D. . . . . . .  C ADDR   068DH   A   
Q0695. . . . . . .  C ADDR   0695H   A   
Q069D. . . . . . .  C ADDR   069DH   A   
Q06A5. . . . . . .  C ADDR   06A5H   A   
Q06AD. . . . . . .  C ADDR   06ADH   A   
Q06B5. . . . . . .  C ADDR   06B5H   A   
Q06BD. . . . . . .  C ADDR   06BDH   A   
Q06C5. . . . . . .  C ADDR   06C5H   A   
Q06CD. . . . . . .  C ADDR   06CDH   A   
Q06D5. . . . . . .  C ADDR   06D5H   A   
Q06DD. . . . . . .  C ADDR   06DDH   A   
Q06E5. . . . . . .  C ADDR   06E5H   A   
Q06ED. . . . . . .  C ADDR   06EDH   A   
Q06F5. . . . . . .  C ADDR   06F5H   A   
Q06FD. . . . . . .  C ADDR   06FDH   A   
Q0705. . . . . . .  C ADDR   0705H   A   
Q070D. . . . . . .  C ADDR   070DH   A   
Q0715. . . . . . .  C ADDR   0715H   A   
Q071D. . . . . . .  C ADDR   071DH   A   
Q0725. . . . . . .  C ADDR   0725H   A   
Q072D. . . . . . .  C ADDR   072DH   A   
Q0735. . . . . . .  C ADDR   0735H   A   
Q073D. . . . . . .  C ADDR   073DH   A   
Q0745. . . . . . .  C ADDR   0745H   A   
Q074D. . . . . . .  C ADDR   074DH   A   
Q0755. . . . . . .  C ADDR   0755H   A   
Q075D. . . . . . .  C ADDR   075DH   A   
Q0765. . . . . . .  C ADDR   0765H   A   
Q076D. . . . . . .  C ADDR   076DH   A   
Q0775. . . . . . .  C ADDR   0775H   A   
Q077D. . . . . . .  C ADDR   077DH   A   
Q0785. . . . . . .  C ADDR   0785H   A   
Q078D. . . . . . .  C ADDR   078DH   A   
Q0795. . . . . . .  C ADDR   0795H   A   
Q079D. . . . . . .  C ADDR   079DH   A   
Q07A5. . . . . . .  C ADDR   07A5H   A   
A51 MACRO ASSEMBLER  __________V0_0                                                       12/04/2016 21:52:57 PAGE    99

Q07AD. . . . . . .  C ADDR   07ADH   A   
Q07B5. . . . . . .  C ADDR   07B5H   A   
Q07BD. . . . . . .  C ADDR   07BDH   A   
Q07C5. . . . . . .  C ADDR   07C5H   A   
Q07CD. . . . . . .  C ADDR   07CDH   A   
Q07D5. . . . . . .  C ADDR   07D5H   A   
Q07DD. . . . . . .  C ADDR   07DDH   A   
Q07E5. . . . . . .  C ADDR   07E5H   A   
Q07ED. . . . . . .  C ADDR   07EDH   A   
Q07F5. . . . . . .  C ADDR   07F5H   A   
Q07FD. . . . . . .  C ADDR   07FDH   A   
Q0805. . . . . . .  C ADDR   0805H   A   
Q080D. . . . . . .  C ADDR   080DH   A   
Q0815. . . . . . .  C ADDR   0815H   A   
Q081D. . . . . . .  C ADDR   081DH   A   
Q0825. . . . . . .  C ADDR   0825H   A   
Q082D. . . . . . .  C ADDR   082DH   A   
Q0835. . . . . . .  C ADDR   0835H   A   
Q083D. . . . . . .  C ADDR   083DH   A   
Q0845. . . . . . .  C ADDR   0845H   A   
Q084D. . . . . . .  C ADDR   084DH   A   
Q0855. . . . . . .  C ADDR   0855H   A   
Q085D. . . . . . .  C ADDR   085DH   A   
Q0865. . . . . . .  C ADDR   0865H   A   
Q086D. . . . . . .  C ADDR   086DH   A   
Q0875. . . . . . .  C ADDR   0875H   A   
Q087D. . . . . . .  C ADDR   087DH   A   
Q0885. . . . . . .  C ADDR   0885H   A   
Q088D. . . . . . .  C ADDR   088DH   A   
Q0895. . . . . . .  C ADDR   0895H   A   
Q089D. . . . . . .  C ADDR   089DH   A   
Q08A5. . . . . . .  C ADDR   08A5H   A   
Q08AD. . . . . . .  C ADDR   08ADH   A   
Q08B5. . . . . . .  C ADDR   08B5H   A   
Q08BD. . . . . . .  C ADDR   08BDH   A   
Q08C5. . . . . . .  C ADDR   08C5H   A   
Q08CD. . . . . . .  C ADDR   08CDH   A   
Q08D5. . . . . . .  C ADDR   08D5H   A   
Q08DD. . . . . . .  C ADDR   08DDH   A   
Q08E5. . . . . . .  C ADDR   08E5H   A   
Q08ED. . . . . . .  C ADDR   08EDH   A   
Q08F5. . . . . . .  C ADDR   08F5H   A   
Q08FD. . . . . . .  C ADDR   08FDH   A   
Q0905. . . . . . .  C ADDR   0905H   A   
Q090D. . . . . . .  C ADDR   090DH   A   
Q0915. . . . . . .  C ADDR   0915H   A   
Q091D. . . . . . .  C ADDR   091DH   A   
Q0925. . . . . . .  C ADDR   0925H   A   
Q092D. . . . . . .  C ADDR   092DH   A   
Q0935. . . . . . .  C ADDR   0935H   A   
Q093D. . . . . . .  C ADDR   093DH   A   
Q0945. . . . . . .  C ADDR   0945H   A   
Q094D. . . . . . .  C ADDR   094DH   A   
Q0955. . . . . . .  C ADDR   0955H   A   
Q095D. . . . . . .  C ADDR   095DH   A   
Q0965. . . . . . .  C ADDR   0965H   A   
Q096D. . . . . . .  C ADDR   096DH   A   
Q0975. . . . . . .  C ADDR   0975H   A   
Q097D. . . . . . .  C ADDR   097DH   A   
Q0985. . . . . . .  C ADDR   0985H   A   
Q098D. . . . . . .  C ADDR   098DH   A   
Q0995. . . . . . .  C ADDR   0995H   A   
Q099D. . . . . . .  C ADDR   099DH   A   
Q09A5. . . . . . .  C ADDR   09A5H   A   
Q09AD. . . . . . .  C ADDR   09ADH   A   
Q09B5. . . . . . .  C ADDR   09B5H   A   
A51 MACRO ASSEMBLER  __________V0_0                                                       12/04/2016 21:52:57 PAGE   100

Q09BD. . . . . . .  C ADDR   09BDH   A   
Q09C5. . . . . . .  C ADDR   09C5H   A   
Q09CD. . . . . . .  C ADDR   09CDH   A   
Q09D5. . . . . . .  C ADDR   09D5H   A   
Q09DD. . . . . . .  C ADDR   09DDH   A   
Q09E5. . . . . . .  C ADDR   09E5H   A   
Q09ED. . . . . . .  C ADDR   09EDH   A   
Q09F5. . . . . . .  C ADDR   09F5H   A   
Q09FD. . . . . . .  C ADDR   09FDH   A   
Q0A05. . . . . . .  C ADDR   0A05H   A   
Q0A0D. . . . . . .  C ADDR   0A0DH   A   
Q0A15. . . . . . .  C ADDR   0A15H   A   
Q0A1D. . . . . . .  C ADDR   0A1DH   A   
Q0A25. . . . . . .  C ADDR   0A25H   A   
Q0A2D. . . . . . .  C ADDR   0A2DH   A   
Q0A35. . . . . . .  C ADDR   0A35H   A   
Q0A3D. . . . . . .  C ADDR   0A3DH   A   
Q0A45. . . . . . .  C ADDR   0A45H   A   
Q0A4D. . . . . . .  C ADDR   0A4DH   A   
Q0A55. . . . . . .  C ADDR   0A55H   A   
Q0A5D. . . . . . .  C ADDR   0A5DH   A   
Q0A65. . . . . . .  C ADDR   0A65H   A   
Q0A6D. . . . . . .  C ADDR   0A6DH   A   
Q0A75. . . . . . .  C ADDR   0A75H   A   
Q0A7D. . . . . . .  C ADDR   0A7DH   A   
Q0A85. . . . . . .  C ADDR   0A85H   A   
Q0A8D. . . . . . .  C ADDR   0A8DH   A   
Q0A95. . . . . . .  C ADDR   0A95H   A   
Q0A9D. . . . . . .  C ADDR   0A9DH   A   
Q0AA5. . . . . . .  C ADDR   0AA5H   A   
Q0AAD. . . . . . .  C ADDR   0AADH   A   
Q0AB5. . . . . . .  C ADDR   0AB5H   A   
Q0ABD. . . . . . .  C ADDR   0ABDH   A   
Q0AC5. . . . . . .  C ADDR   0AC5H   A   
Q0ACD. . . . . . .  C ADDR   0ACDH   A   
Q0AD5. . . . . . .  C ADDR   0AD5H   A   
Q0ADD. . . . . . .  C ADDR   0ADDH   A   
Q0AE5. . . . . . .  C ADDR   0AE5H   A   
Q0AED. . . . . . .  C ADDR   0AEDH   A   
Q0AF5. . . . . . .  C ADDR   0AF5H   A   
Q0AFD. . . . . . .  C ADDR   0AFDH   A   
Q0B05. . . . . . .  C ADDR   0B05H   A   
Q0B0D. . . . . . .  C ADDR   0B0DH   A   
Q0B15. . . . . . .  C ADDR   0B15H   A   
Q0B1D. . . . . . .  C ADDR   0B1DH   A   
Q0B25. . . . . . .  C ADDR   0B25H   A   
Q0B2D. . . . . . .  C ADDR   0B2DH   A   
Q0B35. . . . . . .  C ADDR   0B35H   A   
Q0B3D. . . . . . .  C ADDR   0B3DH   A   
Q0B45. . . . . . .  C ADDR   0B45H   A   
Q0B4D. . . . . . .  C ADDR   0B4DH   A   
Q0B55. . . . . . .  C ADDR   0B55H   A   
Q0B5D. . . . . . .  C ADDR   0B5DH   A   
Q0B65. . . . . . .  C ADDR   0B65H   A   
Q0B6D. . . . . . .  C ADDR   0B6DH   A   
Q0B75. . . . . . .  C ADDR   0B75H   A   
Q0B7D. . . . . . .  C ADDR   0B7DH   A   
Q0B85. . . . . . .  C ADDR   0B85H   A   
Q0B8D. . . . . . .  C ADDR   0B8DH   A   
Q0B95. . . . . . .  C ADDR   0B95H   A   
Q0B9D. . . . . . .  C ADDR   0B9DH   A   
Q0BA5. . . . . . .  C ADDR   0BA5H   A   
Q0BAD. . . . . . .  C ADDR   0BADH   A   
Q0BB5. . . . . . .  C ADDR   0BB5H   A   
Q0BBD. . . . . . .  C ADDR   0BBDH   A   
Q0BC5. . . . . . .  C ADDR   0BC5H   A   
A51 MACRO ASSEMBLER  __________V0_0                                                       12/04/2016 21:52:57 PAGE   101

Q0BCD. . . . . . .  C ADDR   0BCDH   A   
Q0BD5. . . . . . .  C ADDR   0BD5H   A   
Q0BDD. . . . . . .  C ADDR   0BDDH   A   
Q0BE5. . . . . . .  C ADDR   0BE5H   A   
Q0BED. . . . . . .  C ADDR   0BEDH   A   
Q0BF5. . . . . . .  C ADDR   0BF5H   A   
Q0BFD. . . . . . .  C ADDR   0BFDH   A   
Q0C05. . . . . . .  C ADDR   0C05H   A   
Q0C0D. . . . . . .  C ADDR   0C0DH   A   
Q0C15. . . . . . .  C ADDR   0C15H   A   
Q0C1D. . . . . . .  C ADDR   0C1DH   A   
Q0C25. . . . . . .  C ADDR   0C25H   A   
Q0C2D. . . . . . .  C ADDR   0C2DH   A   
Q0C35. . . . . . .  C ADDR   0C35H   A   
Q0C3D. . . . . . .  C ADDR   0C3DH   A   
Q0C45. . . . . . .  C ADDR   0C45H   A   
Q0C4D. . . . . . .  C ADDR   0C4DH   A   
Q0C55. . . . . . .  C ADDR   0C55H   A   
Q0C5D. . . . . . .  C ADDR   0C5DH   A   
Q0C65. . . . . . .  C ADDR   0C65H   A   
Q0C6D. . . . . . .  C ADDR   0C6DH   A   
Q0C75. . . . . . .  C ADDR   0C75H   A   
Q0C7D. . . . . . .  C ADDR   0C7DH   A   
Q0C85. . . . . . .  C ADDR   0C85H   A   
Q0C8D. . . . . . .  C ADDR   0C8DH   A   
Q0C95. . . . . . .  C ADDR   0C95H   A   
Q0C9D. . . . . . .  C ADDR   0C9DH   A   
Q0CA5. . . . . . .  C ADDR   0CA5H   A   
Q0CAD. . . . . . .  C ADDR   0CADH   A   
Q0CB5. . . . . . .  C ADDR   0CB5H   A   
Q0CBD. . . . . . .  C ADDR   0CBDH   A   
Q0CC5. . . . . . .  C ADDR   0CC5H   A   
Q0CCD. . . . . . .  C ADDR   0CCDH   A   
Q0CD5. . . . . . .  C ADDR   0CD5H   A   
Q0CDD. . . . . . .  C ADDR   0CDDH   A   
Q0CE5. . . . . . .  C ADDR   0CE5H   A   
Q0CED. . . . . . .  C ADDR   0CEDH   A   
Q0CF5. . . . . . .  C ADDR   0CF5H   A   
Q0CFD. . . . . . .  C ADDR   0CFDH   A   
Q0D05. . . . . . .  C ADDR   0D05H   A   
Q0D0D. . . . . . .  C ADDR   0D0DH   A   
Q0D15. . . . . . .  C ADDR   0D15H   A   
Q0D1D. . . . . . .  C ADDR   0D1DH   A   
Q0D25. . . . . . .  C ADDR   0D25H   A   
Q0D2D. . . . . . .  C ADDR   0D2DH   A   
Q0D35. . . . . . .  C ADDR   0D35H   A   
Q0D3D. . . . . . .  C ADDR   0D3DH   A   
Q0D45. . . . . . .  C ADDR   0D45H   A   
Q0D4D. . . . . . .  C ADDR   0D4DH   A   
Q0D55. . . . . . .  C ADDR   0D55H   A   
Q0D5D. . . . . . .  C ADDR   0D5DH   A   
Q0D65. . . . . . .  C ADDR   0D65H   A   
Q0D6D. . . . . . .  C ADDR   0D6DH   A   
Q0D75. . . . . . .  C ADDR   0D75H   A   
Q0D7D. . . . . . .  C ADDR   0D7DH   A   
Q0D85. . . . . . .  C ADDR   0D85H   A   
Q0D8D. . . . . . .  C ADDR   0D8DH   A   
Q0D95. . . . . . .  C ADDR   0D95H   A   
Q0D9D. . . . . . .  C ADDR   0D9DH   A   
Q0DA5. . . . . . .  C ADDR   0DA5H   A   
Q0DAD. . . . . . .  C ADDR   0DADH   A   
Q0DB5. . . . . . .  C ADDR   0DB5H   A   
Q0DBD. . . . . . .  C ADDR   0DBDH   A   
Q0DC5. . . . . . .  C ADDR   0DC5H   A   
Q0DCD. . . . . . .  C ADDR   0DCDH   A   
Q0DD5. . . . . . .  C ADDR   0DD5H   A   
A51 MACRO ASSEMBLER  __________V0_0                                                       12/04/2016 21:52:57 PAGE   102

Q0DDD. . . . . . .  C ADDR   0DDDH   A   
Q0DE5. . . . . . .  C ADDR   0DE5H   A   
Q0DED. . . . . . .  C ADDR   0DEDH   A   
Q0DF5. . . . . . .  C ADDR   0DF5H   A   
Q0DFD. . . . . . .  C ADDR   0DFDH   A   
Q0E05. . . . . . .  C ADDR   0E05H   A   
Q0E0D. . . . . . .  C ADDR   0E0DH   A   
Q0E15. . . . . . .  C ADDR   0E15H   A   
Q0E1D. . . . . . .  C ADDR   0E1DH   A   
Q0E25. . . . . . .  C ADDR   0E25H   A   
Q0E2D. . . . . . .  C ADDR   0E2DH   A   
Q0E35. . . . . . .  C ADDR   0E35H   A   
Q0E3D. . . . . . .  C ADDR   0E3DH   A   
Q0E45. . . . . . .  C ADDR   0E45H   A   
Q0E4D. . . . . . .  C ADDR   0E4DH   A   
Q0E55. . . . . . .  C ADDR   0E55H   A   
Q0E5D. . . . . . .  C ADDR   0E5DH   A   
Q0E65. . . . . . .  C ADDR   0E65H   A   
Q0E6D. . . . . . .  C ADDR   0E6DH   A   
Q0E75. . . . . . .  C ADDR   0E75H   A   
Q0E7D. . . . . . .  C ADDR   0E7DH   A   
Q0E85. . . . . . .  C ADDR   0E85H   A   
Q0E8D. . . . . . .  C ADDR   0E8DH   A   
Q0E95. . . . . . .  C ADDR   0E95H   A   
Q0E9D. . . . . . .  C ADDR   0E9DH   A   
Q0EA5. . . . . . .  C ADDR   0EA5H   A   
Q0EAD. . . . . . .  C ADDR   0EADH   A   
Q0EB5. . . . . . .  C ADDR   0EB5H   A   
Q0EBD. . . . . . .  C ADDR   0EBDH   A   
Q0EC5. . . . . . .  C ADDR   0EC5H   A   
Q0ECD. . . . . . .  C ADDR   0ECDH   A   
Q0ED5. . . . . . .  C ADDR   0ED5H   A   
Q0EDD. . . . . . .  C ADDR   0EDDH   A   
Q0EE5. . . . . . .  C ADDR   0EE5H   A   
Q0EED. . . . . . .  C ADDR   0EEDH   A   
Q0EF5. . . . . . .  C ADDR   0EF5H   A   
Q0EFD. . . . . . .  C ADDR   0EFDH   A   
Q0F04. . . . . . .  C ADDR   0F04H   A   
Q191B. . . . . . .  C ADDR   191BH   A   
Q19BA. . . . . . .  C ADDR   19BAH   A   
Q19C0. . . . . . .  C ADDR   19C0H   A   
Q19C8. . . . . . .  C ADDR   19C8H   A   
Q19D6. . . . . . .  C ADDR   19D6H   A   
Q1A1D. . . . . . .  C ADDR   1A1DH   A   
Q1A23. . . . . . .  C ADDR   1A23H   A   
Q1A29. . . . . . .  C ADDR   1A29H   A   
Q1A31. . . . . . .  C ADDR   1A31H   A   
Q1A3F. . . . . . .  C ADDR   1A3FH   A   
Q1A4D. . . . . . .  C ADDR   1A4DH   A   
Q1A54. . . . . . .  C ADDR   1A54H   A   
Q1A64. . . . . . .  C ADDR   1A64H   A   
Q1A6A. . . . . . .  C ADDR   1A6AH   A   
Q1A6D. . . . . . .  C ADDR   1A6DH   A   
Q1A7F. . . . . . .  C ADDR   1A7FH   A   
Q1A84. . . . . . .  C ADDR   1A84H   A   
Q1AA8. . . . . . .  C ADDR   1AA8H   A   
Q1AB8. . . . . . .  C ADDR   1AB8H   A   
Q1AC1. . . . . . .  C ADDR   1AC1H   A   
Q1AE0. . . . . . .  C ADDR   1AE0H   A   
Q1AEA. . . . . . .  C ADDR   1AEAH   A   
Q1AF6. . . . . . .  C ADDR   1AF6H   A   
Q1B0F. . . . . . .  C ADDR   1B0FH   A   
Q1B36. . . . . . .  C ADDR   1B36H   A   
Q1B4D. . . . . . .  C ADDR   1B4DH   A   
Q1B58. . . . . . .  C ADDR   1B58H   A   
Q1B64. . . . . . .  C ADDR   1B64H   A   
A51 MACRO ASSEMBLER  __________V0_0                                                       12/04/2016 21:52:57 PAGE   103

Q1B7D. . . . . . .  C ADDR   1B7DH   A   
Q1BA4. . . . . . .  C ADDR   1BA4H   A   
Q1BBB. . . . . . .  C ADDR   1BBBH   A   
Q1BC8. . . . . . .  C ADDR   1BC8H   A   
Q1BEC. . . . . . .  C ADDR   1BECH   A   
Q1BF9. . . . . . .  C ADDR   1BF9H   A   
Q1C12. . . . . . .  C ADDR   1C12H   A   
Q1C39. . . . . . .  C ADDR   1C39H   A   
Q1C50. . . . . . .  C ADDR   1C50H   A   
Q1C58. . . . . . .  C ADDR   1C58H   A   
Q1C5B. . . . . . .  C ADDR   1C5BH   A   
Q1C64. . . . . . .  C ADDR   1C64H   A   
Q1C6B. . . . . . .  C ADDR   1C6BH   A   
Q1C70. . . . . . .  C ADDR   1C70H   A   
Q1CE8. . . . . . .  C ADDR   1CE8H   A   
Q1CF0. . . . . . .  C ADDR   1CF0H   A   
Q1CF9. . . . . . .  C ADDR   1CF9H   A   
Q1D26. . . . . . .  C ADDR   1D26H   A   
Q1D4D. . . . . . .  C ADDR   1D4DH   A   
Q1D56. . . . . . .  C ADDR   1D56H   A   
Q1D5C. . . . . . .  C ADDR   1D5CH   A   
Q1D63. . . . . . .  C ADDR   1D63H   A   
Q1D68. . . . . . .  C ADDR   1D68H   A   
Q1DA1. . . . . . .  C ADDR   1DA1H   A   
Q1DCD. . . . . . .  C ADDR   1DCDH   A   
Q1DDD. . . . . . .  C ADDR   1DDDH   A   
Q1DE6. . . . . . .  C ADDR   1DE6H   A   
Q1DEB. . . . . . .  C ADDR   1DEBH   A   
Q1E23. . . . . . .  C ADDR   1E23H   A   
Q1E4E. . . . . . .  C ADDR   1E4EH   A   
Q1E5E. . . . . . .  C ADDR   1E5EH   A   
Q1E66. . . . . . .  C ADDR   1E66H   A   
Q1E6B. . . . . . .  C ADDR   1E6BH   A   
Q1EA3. . . . . . .  C ADDR   1EA3H   A   
Q1ECE. . . . . . .  C ADDR   1ECEH   A   
Q1EDE. . . . . . .  C ADDR   1EDEH   A   
Q1EE4. . . . . . .  C ADDR   1EE4H   A   
Q1F11. . . . . . .  C ADDR   1F11H   A   
Q1F21. . . . . . .  C ADDR   1F21H   A   
Q1F31. . . . . . .  C ADDR   1F31H   A   
Q1F37. . . . . . .  C ADDR   1F37H   A   
Q1F3F. . . . . . .  C ADDR   1F3FH   A   
Q1F4D. . . . . . .  C ADDR   1F4DH   A   
Q1F53. . . . . . .  C ADDR   1F53H   A   
Q1F5B. . . . . . .  C ADDR   1F5BH   A   
Q1F69. . . . . . .  C ADDR   1F69H   A   
Q1F70. . . . . . .  C ADDR   1F70H   A   
Q1F9E. . . . . . .  C ADDR   1F9EH   A   
Q1FA0. . . . . . .  C ADDR   1FA0H   A   
Q1FA8. . . . . . .  C ADDR   1FA8H   A   
Q1FAA. . . . . . .  C ADDR   1FAAH   A   
Q1FB2. . . . . . .  C ADDR   1FB2H   A   
Q1FBA. . . . . . .  C ADDR   1FBAH   A   
Q1FC2. . . . . . .  C ADDR   1FC2H   A   
Q1FCA. . . . . . .  C ADDR   1FCAH   A   
Q1FCC. . . . . . .  C ADDR   1FCCH   A   
Q1FCE. . . . . . .  C ADDR   1FCEH   A   
Q1FD4. . . . . . .  C ADDR   1FD4H   A   
Q1FE9. . . . . . .  C ADDR   1FE9H   A   
Q1FF4. . . . . . .  C ADDR   1FF4H   A   
Q1FFC. . . . . . .  C ADDR   1FFCH   A   
Q2007. . . . . . .  C ADDR   2007H   A   
Q2019. . . . . . .  C ADDR   2019H   A   
Q2020. . . . . . .  C ADDR   2020H   A   
Q202F. . . . . . .  C ADDR   202FH   A   
Q2037. . . . . . .  C ADDR   2037H   A   
A51 MACRO ASSEMBLER  __________V0_0                                                       12/04/2016 21:52:57 PAGE   104

Q2042. . . . . . .  C ADDR   2042H   A   
Q205B. . . . . . .  C ADDR   205BH   A   
Q2066. . . . . . .  C ADDR   2066H   A   
Q206E. . . . . . .  C ADDR   206EH   A   
Q207F. . . . . . .  C ADDR   207FH   A   
Q208E. . . . . . .  C ADDR   208EH   A   
Q2096. . . . . . .  C ADDR   2096H   A   
Q20A1. . . . . . .  C ADDR   20A1H   A   
Q20BA. . . . . . .  C ADDR   20BAH   A   
Q20C5. . . . . . .  C ADDR   20C5H   A   
Q20CD. . . . . . .  C ADDR   20CDH   A   
Q20DE. . . . . . .  C ADDR   20DEH   A   
Q20E9. . . . . . .  C ADDR   20E9H   A   
Q20F1. . . . . . .  C ADDR   20F1H   A   
Q20FC. . . . . . .  C ADDR   20FCH   A   
Q210D. . . . . . .  C ADDR   210DH   A   
Q2114. . . . . . .  C ADDR   2114H   A   
Q211F. . . . . . .  C ADDR   211FH   A   
Q2127. . . . . . .  C ADDR   2127H   A   
Q2132. . . . . . .  C ADDR   2132H   A   
Q2143. . . . . . .  C ADDR   2143H   A   
Q214A. . . . . . .  C ADDR   214AH   A   
Q2155. . . . . . .  C ADDR   2155H   A   
Q215D. . . . . . .  C ADDR   215DH   A   
Q2168. . . . . . .  C ADDR   2168H   A   
Q2179. . . . . . .  C ADDR   2179H   A   
Q2180. . . . . . .  C ADDR   2180H   A   
Q2188. . . . . . .  C ADDR   2188H   A   
Q218B. . . . . . .  C ADDR   218BH   A   
Q2197. . . . . . .  C ADDR   2197H   A   
Q21B1. . . . . . .  C ADDR   21B1H   A   
Q21CF. . . . . . .  C ADDR   21CFH   A   
Q21D1. . . . . . .  C ADDR   21D1H   A   
Q21D9. . . . . . .  C ADDR   21D9H   A   
Q21ED. . . . . . .  C ADDR   21EDH   A   
Q21EF. . . . . . .  C ADDR   21EFH   A   
Q21F7. . . . . . .  C ADDR   21F7H   A   
Q2200. . . . . . .  C ADDR   2200H   A   
Q220F. . . . . . .  C ADDR   220FH   A   
Q2211. . . . . . .  C ADDR   2211H   A   
Q221B. . . . . . .  C ADDR   221BH   A   
Q2224. . . . . . .  C ADDR   2224H   A   
Q2233. . . . . . .  C ADDR   2233H   A   
Q2251. . . . . . .  C ADDR   2251H   A   
Q2253. . . . . . .  C ADDR   2253H   A   
Q2260. . . . . . .  C ADDR   2260H   A   
Q2274. . . . . . .  C ADDR   2274H   A   
Q2276. . . . . . .  C ADDR   2276H   A   
Q2283. . . . . . .  C ADDR   2283H   A   
Q228C. . . . . . .  C ADDR   228CH   A   
Q229B. . . . . . .  C ADDR   229BH   A   
Q229D. . . . . . .  C ADDR   229DH   A   
Q22A7. . . . . . .  C ADDR   22A7H   A   
Q22B5. . . . . . .  C ADDR   22B5H   A   
Q22C4. . . . . . .  C ADDR   22C4H   A   
Q22E2. . . . . . .  C ADDR   22E2H   A   
Q22E4. . . . . . .  C ADDR   22E4H   A   
Q22F1. . . . . . .  C ADDR   22F1H   A   
Q2305. . . . . . .  C ADDR   2305H   A   
Q2307. . . . . . .  C ADDR   2307H   A   
Q2314. . . . . . .  C ADDR   2314H   A   
Q231D. . . . . . .  C ADDR   231DH   A   
Q232C. . . . . . .  C ADDR   232CH   A   
Q232E. . . . . . .  C ADDR   232EH   A   
Q2338. . . . . . .  C ADDR   2338H   A   
Q2341. . . . . . .  C ADDR   2341H   A   
A51 MACRO ASSEMBLER  __________V0_0                                                       12/04/2016 21:52:57 PAGE   105

Q2350. . . . . . .  C ADDR   2350H   A   
Q236E. . . . . . .  C ADDR   236EH   A   
Q2370. . . . . . .  C ADDR   2370H   A   
Q237D. . . . . . .  C ADDR   237DH   A   
Q2391. . . . . . .  C ADDR   2391H   A   
Q2393. . . . . . .  C ADDR   2393H   A   
Q23A0. . . . . . .  C ADDR   23A0H   A   
Q23A9. . . . . . .  C ADDR   23A9H   A   
Q23B8. . . . . . .  C ADDR   23B8H   A   
Q23BA. . . . . . .  C ADDR   23BAH   A   
Q23C4. . . . . . .  C ADDR   23C4H   A   
Q23D2. . . . . . .  C ADDR   23D2H   A   
Q23E1. . . . . . .  C ADDR   23E1H   A   
Q23FF. . . . . . .  C ADDR   23FFH   A   
Q2401. . . . . . .  C ADDR   2401H   A   
Q240E. . . . . . .  C ADDR   240EH   A   
Q2422. . . . . . .  C ADDR   2422H   A   
Q2424. . . . . . .  C ADDR   2424H   A   
Q2431. . . . . . .  C ADDR   2431H   A   
Q243A. . . . . . .  C ADDR   243AH   A   
Q2449. . . . . . .  C ADDR   2449H   A   
Q244B. . . . . . .  C ADDR   244BH   A   
Q2455. . . . . . .  C ADDR   2455H   A   
Q245E. . . . . . .  C ADDR   245EH   A   
Q246D. . . . . . .  C ADDR   246DH   A   
Q248B. . . . . . .  C ADDR   248BH   A   
Q248D. . . . . . .  C ADDR   248DH   A   
Q249A. . . . . . .  C ADDR   249AH   A   
Q24AE. . . . . . .  C ADDR   24AEH   A   
Q24B0. . . . . . .  C ADDR   24B0H   A   
Q24BD. . . . . . .  C ADDR   24BDH   A   
Q24C6. . . . . . .  C ADDR   24C6H   A   
Q24D5. . . . . . .  C ADDR   24D5H   A   
Q24D7. . . . . . .  C ADDR   24D7H   A   
Q24DE. . . . . . .  C ADDR   24DEH   A   
Q24E2. . . . . . .  C ADDR   24E2H   A   
Q24FB. . . . . . .  C ADDR   24FBH   A   
Q251D. . . . . . .  C ADDR   251DH   A   
Q251F. . . . . . .  C ADDR   251FH   A   
Q2526. . . . . . .  C ADDR   2526H   A   
Q253E. . . . . . .  C ADDR   253EH   A   
Q2540. . . . . . .  C ADDR   2540H   A   
Q2547. . . . . . .  C ADDR   2547H   A   
Q255F. . . . . . .  C ADDR   255FH   A   
Q2561. . . . . . .  C ADDR   2561H   A   
Q2563. . . . . . .  C ADDR   2563H   A   
Q2568. . . . . . .  C ADDR   2568H   A   
Q2571. . . . . . .  C ADDR   2571H   A   
Q2572. . . . . . .  C ADDR   2572H   A   
Q257A. . . . . . .  C ADDR   257AH   A   
Q2582. . . . . . .  C ADDR   2582H   A   
Q258A. . . . . . .  C ADDR   258AH   A   
Q2592. . . . . . .  C ADDR   2592H   A   
Q259A. . . . . . .  C ADDR   259AH   A   
Q25A2. . . . . . .  C ADDR   25A2H   A   
Q25AA. . . . . . .  C ADDR   25AAH   A   
Q25B2. . . . . . .  C ADDR   25B2H   A   
Q25BA. . . . . . .  C ADDR   25BAH   A   
Q25C2. . . . . . .  C ADDR   25C2H   A   
Q25CA. . . . . . .  C ADDR   25CAH   A   
Q25D2. . . . . . .  C ADDR   25D2H   A   
Q25DA. . . . . . .  C ADDR   25DAH   A   
Q25E2. . . . . . .  C ADDR   25E2H   A   
Q25EA. . . . . . .  C ADDR   25EAH   A   
Q25F2. . . . . . .  C ADDR   25F2H   A   
Q25FA. . . . . . .  C ADDR   25FAH   A   
A51 MACRO ASSEMBLER  __________V0_0                                                       12/04/2016 21:52:57 PAGE   106

Q2602. . . . . . .  C ADDR   2602H   A   
Q260A. . . . . . .  C ADDR   260AH   A   
Q2612. . . . . . .  C ADDR   2612H   A   
Q261A. . . . . . .  C ADDR   261AH   A   
Q2622. . . . . . .  C ADDR   2622H   A   
Q262A. . . . . . .  C ADDR   262AH   A   
Q2632. . . . . . .  C ADDR   2632H   A   
Q263A. . . . . . .  C ADDR   263AH   A   
Q2642. . . . . . .  C ADDR   2642H   A   
Q264A. . . . . . .  C ADDR   264AH   A   
Q2652. . . . . . .  C ADDR   2652H   A   
Q265A. . . . . . .  C ADDR   265AH   A   
Q2662. . . . . . .  C ADDR   2662H   A   
Q266A. . . . . . .  C ADDR   266AH   A   
Q2672. . . . . . .  C ADDR   2672H   A   
Q267A. . . . . . .  C ADDR   267AH   A   
Q2682. . . . . . .  C ADDR   2682H   A   
Q268A. . . . . . .  C ADDR   268AH   A   
Q2692. . . . . . .  C ADDR   2692H   A   
Q269A. . . . . . .  C ADDR   269AH   A   
Q26A2. . . . . . .  C ADDR   26A2H   A   
Q26AA. . . . . . .  C ADDR   26AAH   A   
Q26B2. . . . . . .  C ADDR   26B2H   A   
Q26BA. . . . . . .  C ADDR   26BAH   A   
Q26C2. . . . . . .  C ADDR   26C2H   A   
Q26CA. . . . . . .  C ADDR   26CAH   A   
Q26D2. . . . . . .  C ADDR   26D2H   A   
Q26DA. . . . . . .  C ADDR   26DAH   A   
Q26E2. . . . . . .  C ADDR   26E2H   A   
Q26EA. . . . . . .  C ADDR   26EAH   A   
Q26F2. . . . . . .  C ADDR   26F2H   A   
Q26FA. . . . . . .  C ADDR   26FAH   A   
Q2702. . . . . . .  C ADDR   2702H   A   
Q270A. . . . . . .  C ADDR   270AH   A   
Q2712. . . . . . .  C ADDR   2712H   A   
Q271A. . . . . . .  C ADDR   271AH   A   
Q2722. . . . . . .  C ADDR   2722H   A   
Q272A. . . . . . .  C ADDR   272AH   A   
Q2732. . . . . . .  C ADDR   2732H   A   
Q273A. . . . . . .  C ADDR   273AH   A   
Q2742. . . . . . .  C ADDR   2742H   A   
Q274A. . . . . . .  C ADDR   274AH   A   
Q2752. . . . . . .  C ADDR   2752H   A   
Q275A. . . . . . .  C ADDR   275AH   A   
Q2762. . . . . . .  C ADDR   2762H   A   
Q276A. . . . . . .  C ADDR   276AH   A   
Q2772. . . . . . .  C ADDR   2772H   A   
Q277A. . . . . . .  C ADDR   277AH   A   
Q2782. . . . . . .  C ADDR   2782H   A   
Q278A. . . . . . .  C ADDR   278AH   A   
Q2792. . . . . . .  C ADDR   2792H   A   
Q279A. . . . . . .  C ADDR   279AH   A   
Q27A2. . . . . . .  C ADDR   27A2H   A   
Q27AA. . . . . . .  C ADDR   27AAH   A   
Q27B2. . . . . . .  C ADDR   27B2H   A   
Q27BA. . . . . . .  C ADDR   27BAH   A   
Q27C2. . . . . . .  C ADDR   27C2H   A   
Q27CA. . . . . . .  C ADDR   27CAH   A   
Q27D2. . . . . . .  C ADDR   27D2H   A   
Q27DA. . . . . . .  C ADDR   27DAH   A   
Q27E2. . . . . . .  C ADDR   27E2H   A   
Q27EA. . . . . . .  C ADDR   27EAH   A   
Q27F2. . . . . . .  C ADDR   27F2H   A   
Q27FA. . . . . . .  C ADDR   27FAH   A   
Q2802. . . . . . .  C ADDR   2802H   A   
Q280A. . . . . . .  C ADDR   280AH   A   
A51 MACRO ASSEMBLER  __________V0_0                                                       12/04/2016 21:52:57 PAGE   107

Q2812. . . . . . .  C ADDR   2812H   A   
Q281A. . . . . . .  C ADDR   281AH   A   
Q2822. . . . . . .  C ADDR   2822H   A   
Q282B. . . . . . .  C ADDR   282BH   A   
Q282F. . . . . . .  C ADDR   282FH   A   
Q2834. . . . . . .  C ADDR   2834H   A   
Q283B. . . . . . .  C ADDR   283BH   A   
Q284A. . . . . . .  C ADDR   284AH   A   
Q2852. . . . . . .  C ADDR   2852H   A   
Q285B. . . . . . .  C ADDR   285BH   A   
Q2868. . . . . . .  C ADDR   2868H   A   
Q2879. . . . . . .  C ADDR   2879H   A   
Q2881. . . . . . .  C ADDR   2881H   A   
Q2889. . . . . . .  C ADDR   2889H   A   
Q288A. . . . . . .  C ADDR   288AH   A   
Q289C. . . . . . .  C ADDR   289CH   A   
Q28AB. . . . . . .  C ADDR   28ABH   A   
Q28C4. . . . . . .  C ADDR   28C4H   A   
Q28C7. . . . . . .  C ADDR   28C7H   A   
Q28D1. . . . . . .  C ADDR   28D1H   A   
Q28D2. . . . . . .  C ADDR   28D2H   A   
Q2921. . . . . . .  C ADDR   2921H   A   
Q2927. . . . . . .  C ADDR   2927H   A   
Q294E. . . . . . .  C ADDR   294EH   A   
Q295D. . . . . . .  C ADDR   295DH   A   
Q2974. . . . . . .  C ADDR   2974H   A   
Q2989. . . . . . .  C ADDR   2989H   A   
Q298D. . . . . . .  C ADDR   298DH   A   
Q2993. . . . . . .  C ADDR   2993H   A   
Q2995. . . . . . .  C ADDR   2995H   A   
Q29AC. . . . . . .  C ADDR   29ACH   A   
Q29B3. . . . . . .  C ADDR   29B3H   A   
Q29BC. . . . . . .  C ADDR   29BCH   A   
Q29BF. . . . . . .  C ADDR   29BFH   A   
Q29D8. . . . . . .  C ADDR   29D8H   A   
Q29E2. . . . . . .  C ADDR   29E2H   A   
Q29EF. . . . . . .  C ADDR   29EFH   A   
Q2A00. . . . . . .  C ADDR   2A00H   A   
Q2A0E. . . . . . .  C ADDR   2A0EH   A   
Q2A14. . . . . . .  C ADDR   2A14H   A   
Q2A28. . . . . . .  C ADDR   2A28H   A   
Q2A2F. . . . . . .  C ADDR   2A2FH   A   
Q2A3E. . . . . . .  C ADDR   2A3EH   A   
Q2A4D. . . . . . .  C ADDR   2A4DH   A   
Q2A4F. . . . . . .  C ADDR   2A4FH   A   
Q2A54. . . . . . .  C ADDR   2A54H   A   
Q2A55. . . . . . .  C ADDR   2A55H   A   
Q2A6D. . . . . . .  C ADDR   2A6DH   A   
Q2A7C. . . . . . .  C ADDR   2A7CH   A   
Q2A87. . . . . . .  C ADDR   2A87H   A   
Q2A8B. . . . . . .  C ADDR   2A8BH   A   
Q2AB9. . . . . . .  C ADDR   2AB9H   A   
Q2ABB. . . . . . .  C ADDR   2ABBH   A   
Q2AC4. . . . . . .  C ADDR   2AC4H   A   
Q2AE8. . . . . . .  C ADDR   2AE8H   A   
Q2B30. . . . . . .  C ADDR   2B30H   A   
Q2B42. . . . . . .  C ADDR   2B42H   A   
Q2B54. . . . . . .  C ADDR   2B54H   A   
Q2B5B. . . . . . .  C ADDR   2B5BH   A   
Q2B60. . . . . . .  C ADDR   2B60H   A   
Q2B98. . . . . . .  C ADDR   2B98H   A   
Q2BA0. . . . . . .  C ADDR   2BA0H   A   
Q2BA8. . . . . . .  C ADDR   2BA8H   A   
Q2BB0. . . . . . .  C ADDR   2BB0H   A   
Q2BB8. . . . . . .  C ADDR   2BB8H   A   
Q2BC0. . . . . . .  C ADDR   2BC0H   A   
A51 MACRO ASSEMBLER  __________V0_0                                                       12/04/2016 21:52:57 PAGE   108

Q2BC8. . . . . . .  C ADDR   2BC8H   A   
Q2BD0. . . . . . .  C ADDR   2BD0H   A   
Q2BD8. . . . . . .  C ADDR   2BD8H   A   
Q2BE0. . . . . . .  C ADDR   2BE0H   A   
Q2BE8. . . . . . .  C ADDR   2BE8H   A   
Q2BF0. . . . . . .  C ADDR   2BF0H   A   
Q2BF8. . . . . . .  C ADDR   2BF8H   A   
Q2C00. . . . . . .  C ADDR   2C00H   A   
Q2C06. . . . . . .  C ADDR   2C06H   A   
Q2C0D. . . . . . .  C ADDR   2C0DH   A   
Q2C22. . . . . . .  C ADDR   2C22H   A   
Q2C2A. . . . . . .  C ADDR   2C2AH   A   
Q2C30. . . . . . .  C ADDR   2C30H   A   
Q2C37. . . . . . .  C ADDR   2C37H   A   
Q2C38. . . . . . .  C ADDR   2C38H   A   
Q2C40. . . . . . .  C ADDR   2C40H   A   
Q2C48. . . . . . .  C ADDR   2C48H   A   
Q2C50. . . . . . .  C ADDR   2C50H   A   
Q2C58. . . . . . .  C ADDR   2C58H   A   
Q2C60. . . . . . .  C ADDR   2C60H   A   
Q2C68. . . . . . .  C ADDR   2C68H   A   
Q2C70. . . . . . .  C ADDR   2C70H   A   
Q2C78. . . . . . .  C ADDR   2C78H   A   
Q2C80. . . . . . .  C ADDR   2C80H   A   
Q2C88. . . . . . .  C ADDR   2C88H   A   
Q2C90. . . . . . .  C ADDR   2C90H   A   
Q2C98. . . . . . .  C ADDR   2C98H   A   
Q2CA0. . . . . . .  C ADDR   2CA0H   A   
Q2CA8. . . . . . .  C ADDR   2CA8H   A   
Q2CB0. . . . . . .  C ADDR   2CB0H   A   
Q2CB8. . . . . . .  C ADDR   2CB8H   A   
Q2CC0. . . . . . .  C ADDR   2CC0H   A   
Q2CC8. . . . . . .  C ADDR   2CC8H   A   
Q2CD0. . . . . . .  C ADDR   2CD0H   A   
Q2CD8. . . . . . .  C ADDR   2CD8H   A   
Q2CE0. . . . . . .  C ADDR   2CE0H   A   
Q2CE8. . . . . . .  C ADDR   2CE8H   A   
Q2CF0. . . . . . .  C ADDR   2CF0H   A   
Q2CF8. . . . . . .  C ADDR   2CF8H   A   
Q2D00. . . . . . .  C ADDR   2D00H   A   
Q2D08. . . . . . .  C ADDR   2D08H   A   
Q2D10. . . . . . .  C ADDR   2D10H   A   
Q2D18. . . . . . .  C ADDR   2D18H   A   
Q2D20. . . . . . .  C ADDR   2D20H   A   
Q2D28. . . . . . .  C ADDR   2D28H   A   
Q2D30. . . . . . .  C ADDR   2D30H   A   
Q2D38. . . . . . .  C ADDR   2D38H   A   
Q2D40. . . . . . .  C ADDR   2D40H   A   
Q2D48. . . . . . .  C ADDR   2D48H   A   
Q2D50. . . . . . .  C ADDR   2D50H   A   
Q2D58. . . . . . .  C ADDR   2D58H   A   
Q2D60. . . . . . .  C ADDR   2D60H   A   
Q2D68. . . . . . .  C ADDR   2D68H   A   
Q2D70. . . . . . .  C ADDR   2D70H   A   
Q2D78. . . . . . .  C ADDR   2D78H   A   
Q2D80. . . . . . .  C ADDR   2D80H   A   
Q2D88. . . . . . .  C ADDR   2D88H   A   
Q2D90. . . . . . .  C ADDR   2D90H   A   
Q2D98. . . . . . .  C ADDR   2D98H   A   
Q2DA0. . . . . . .  C ADDR   2DA0H   A   
Q2DA8. . . . . . .  C ADDR   2DA8H   A   
Q2DB0. . . . . . .  C ADDR   2DB0H   A   
Q2DB8. . . . . . .  C ADDR   2DB8H   A   
Q2DC0. . . . . . .  C ADDR   2DC0H   A   
Q2DC4. . . . . . .  C ADDR   2DC4H   A   
Q2DCD. . . . . . .  C ADDR   2DCDH   A   
A51 MACRO ASSEMBLER  __________V0_0                                                       12/04/2016 21:52:57 PAGE   109

Q2DD7. . . . . . .  C ADDR   2DD7H   A   
Q2DF7. . . . . . .  C ADDR   2DF7H   A   
Q2E1A. . . . . . .  C ADDR   2E1AH   A   
Q2E47. . . . . . .  C ADDR   2E47H   A   
Q2E67. . . . . . .  C ADDR   2E67H   A   
Q2E8A. . . . . . .  C ADDR   2E8AH   A   
Q2EC0. . . . . . .  C ADDR   2EC0H   A   
Q2EC5. . . . . . .  C ADDR   2EC5H   A   
Q2EC6. . . . . . .  C ADDR   2EC6H   A   
Q2ECE. . . . . . .  C ADDR   2ECEH   A   
Q2ED6. . . . . . .  C ADDR   2ED6H   A   
Q2EDE. . . . . . .  C ADDR   2EDEH   A   
Q2EE6. . . . . . .  C ADDR   2EE6H   A   
Q2EEE. . . . . . .  C ADDR   2EEEH   A   
Q2EF6. . . . . . .  C ADDR   2EF6H   A   
Q2EFE. . . . . . .  C ADDR   2EFEH   A   
Q2F06. . . . . . .  C ADDR   2F06H   A   
Q2F0E. . . . . . .  C ADDR   2F0EH   A   
Q2F16. . . . . . .  C ADDR   2F16H   A   
Q2F1E. . . . . . .  C ADDR   2F1EH   A   
Q2F26. . . . . . .  C ADDR   2F26H   A   
Q2F2E. . . . . . .  C ADDR   2F2EH   A   
Q2F36. . . . . . .  C ADDR   2F36H   A   
Q2F3E. . . . . . .  C ADDR   2F3EH   A   
Q2F46. . . . . . .  C ADDR   2F46H   A   
Q2F4E. . . . . . .  C ADDR   2F4EH   A   
Q2F56. . . . . . .  C ADDR   2F56H   A   
Q2F5E. . . . . . .  C ADDR   2F5EH   A   
Q2F66. . . . . . .  C ADDR   2F66H   A   
Q2F6E. . . . . . .  C ADDR   2F6EH   A   
Q2F76. . . . . . .  C ADDR   2F76H   A   
Q2F7E. . . . . . .  C ADDR   2F7EH   A   
Q2F86. . . . . . .  C ADDR   2F86H   A   
Q2F87. . . . . . .  C ADDR   2F87H   A   
Q2F8D. . . . . . .  C ADDR   2F8DH   A   
Q2FA0. . . . . . .  C ADDR   2FA0H   A   
Q2FA5. . . . . . .  C ADDR   2FA5H   A   
Q2FB8. . . . . . .  C ADDR   2FB8H   A   
Q2FCB. . . . . . .  C ADDR   2FCBH   A   
Q2FDE. . . . . . .  C ADDR   2FDEH   A   
Q2FE7. . . . . . .  C ADDR   2FE7H   A   
Q3007. . . . . . .  C ADDR   3007H   A   
Q300A. . . . . . .  C ADDR   300AH   A   
Q302E. . . . . . .  C ADDR   302EH   A   
Q3037. . . . . . .  C ADDR   3037H   A   
Q3085. . . . . . .  C ADDR   3085H   A   
Q3096. . . . . . .  C ADDR   3096H   A   
Q30A3. . . . . . .  C ADDR   30A3H   A   
Q30C9. . . . . . .  C ADDR   30C9H   A   
Q30D8. . . . . . .  C ADDR   30D8H   A   
Q3108. . . . . . .  C ADDR   3108H   A   
Q3109. . . . . . .  C ADDR   3109H   A   
Q311A. . . . . . .  C ADDR   311AH   A   
Q313F. . . . . . .  C ADDR   313FH   A   
Q3140. . . . . . .  C ADDR   3140H   A   
Q314C. . . . . . .  C ADDR   314CH   A   
Q3170. . . . . . .  C ADDR   3170H   A   
Q3171. . . . . . .  C ADDR   3171H   A   
Q317D. . . . . . .  C ADDR   317DH   A   
Q3185. . . . . . .  C ADDR   3185H   A   
Q3198. . . . . . .  C ADDR   3198H   A   
Q31BD. . . . . . .  C ADDR   31BDH   A   
Q31E1. . . . . . .  C ADDR   31E1H   A   
Q31E3. . . . . . .  C ADDR   31E3H   A   
Q31F6. . . . . . .  C ADDR   31F6H   A   
Q3204. . . . . . .  C ADDR   3204H   A   
A51 MACRO ASSEMBLER  __________V0_0                                                       12/04/2016 21:52:57 PAGE   110

Q3209. . . . . . .  C ADDR   3209H   A   
Q3211. . . . . . .  C ADDR   3211H   A   
Q3224. . . . . . .  C ADDR   3224H   A   
Q323A. . . . . . .  C ADDR   323AH   A   
Q3243. . . . . . .  C ADDR   3243H   A   
Q324E. . . . . . .  C ADDR   324EH   A   
Q3262. . . . . . .  C ADDR   3262H   A   
Q326A. . . . . . .  C ADDR   326AH   A   
Q3272. . . . . . .  C ADDR   3272H   A   
Q3275. . . . . . .  C ADDR   3275H   A   
Q3281. . . . . . .  C ADDR   3281H   A   
Q3284. . . . . . .  C ADDR   3284H   A   
SP . . . . . . . .  D ADDR   0081H   A   
TH0. . . . . . . .  D ADDR   008CH   A   
TH1. . . . . . . .  D ADDR   008DH   A   
TL0. . . . . . . .  D ADDR   008AH   A   
TL1. . . . . . . .  D ADDR   008BH   A   
TMOD . . . . . . .  D ADDR   0089H   A   
TR0. . . . . . . .  B ADDR   0088H.4 A   
TR1. . . . . . . .  B ADDR   0088H.6 A   


REGISTER BANK(S) USED: 0 


ASSEMBLY COMPLETE.  0 WARNING(S), 0 ERROR(S)
